	.file	"juce_core.cpp"
	.text
#APP
	.globl _ZSt21ios_base_library_initv
#NO_APP
	.section	.text._ZNKSt5ctypeIcE8do_widenEc,"axG",@progbits,_ZNKSt5ctypeIcE8do_widenEc,comdat
	.align 2
	.p2align 4
	.weak	_ZNKSt5ctypeIcE8do_widenEc
	.type	_ZNKSt5ctypeIcE8do_widenEc, @function
_ZNKSt5ctypeIcE8do_widenEc:
.LFB3898:
	.cfi_startproc
	movl	%esi, %eax
	ret
	.cfi_endproc
.LFE3898:
	.size	_ZNKSt5ctypeIcE8do_widenEc, .-_ZNKSt5ctypeIcE8do_widenEc
	.section	.text._ZN4juce13DynamicObject17didModifyPropertyERKNS_10IdentifierERKSt8optionalINS_3varEE,"axG",@progbits,_ZN4juce13DynamicObject17didModifyPropertyERKNS_10IdentifierERKSt8optionalINS_3varEE,comdat
	.align 2
	.p2align 4
	.weak	_ZN4juce13DynamicObject17didModifyPropertyERKNS_10IdentifierERKSt8optionalINS_3varEE
	.type	_ZN4juce13DynamicObject17didModifyPropertyERKNS_10IdentifierERKSt8optionalINS_3varEE, @function
_ZN4juce13DynamicObject17didModifyPropertyERKNS_10IdentifierERKSt8optionalINS_3varEE:
.LFB9255:
	.cfi_startproc
	ret
	.cfi_endproc
.LFE9255:
	.size	_ZN4juce13DynamicObject17didModifyPropertyERKNS_10IdentifierERKSt8optionalINS_3varEE, .-_ZN4juce13DynamicObject17didModifyPropertyERKNS_10IdentifierERKSt8optionalINS_3varEE
	.section	.text._ZN4juce18MemoryOutputStream11getPositionEv,"axG",@progbits,_ZN4juce18MemoryOutputStream11getPositionEv,comdat
	.align 2
	.p2align 4
	.weak	_ZN4juce18MemoryOutputStream11getPositionEv
	.type	_ZN4juce18MemoryOutputStream11getPositionEv, @function
_ZN4juce18MemoryOutputStream11getPositionEv:
.LFB9330:
	.cfi_startproc
	movq	48(%rdi), %rax
	ret
	.cfi_endproc
.LFE9330:
	.size	_ZN4juce18MemoryOutputStream11getPositionEv, .-_ZN4juce18MemoryOutputStream11getPositionEv
	.text
	.align 2
	.p2align 4
	.globl	_ZN4juce15FileInputStream11getPositionEv
	.type	_ZN4juce15FileInputStream11getPositionEv, @function
_ZN4juce15FileInputStream11getPositionEv:
.LFB10381:
	.cfi_startproc
	movq	24(%rdi), %rax
	ret
	.cfi_endproc
.LFE10381:
	.size	_ZN4juce15FileInputStream11getPositionEv, .-_ZN4juce15FileInputStream11getPositionEv
	.align 2
	.p2align 4
	.globl	_ZN4juce16FileOutputStream11getPositionEv
	.type	_ZN4juce16FileOutputStream11getPositionEv, @function
_ZN4juce16FileOutputStream11getPositionEv:
.LFB10390:
	.cfi_startproc
	movq	40(%rdi), %rax
	ret
	.cfi_endproc
.LFE10390:
	.size	_ZN4juce16FileOutputStream11getPositionEv, .-_ZN4juce16FileOutputStream11getPositionEv
	.section	.text._ZNK4juce10Expression4Term8toDoubleEv,"axG",@progbits,_ZNK4juce10Expression4Term8toDoubleEv,comdat
	.align 2
	.p2align 4
	.weak	_ZNK4juce10Expression4Term8toDoubleEv
	.type	_ZNK4juce10Expression4Term8toDoubleEv, @function
_ZNK4juce10Expression4Term8toDoubleEv:
.LFB10620:
	.cfi_startproc
	pxor	%xmm0, %xmm0
	ret
	.cfi_endproc
.LFE10620:
	.size	_ZNK4juce10Expression4Term8toDoubleEv, .-_ZNK4juce10Expression4Term8toDoubleEv
	.section	.text._ZNK4juce10Expression4Term16getInputIndexForEPKS1_,"axG",@progbits,_ZNK4juce10Expression4Term16getInputIndexForEPKS1_,comdat
	.align 2
	.p2align 4
	.weak	_ZNK4juce10Expression4Term16getInputIndexForEPKS1_
	.type	_ZNK4juce10Expression4Term16getInputIndexForEPKS1_, @function
_ZNK4juce10Expression4Term16getInputIndexForEPKS1_:
.LFB10621:
	.cfi_startproc
	movl	$-1, %eax
	ret
	.cfi_endproc
.LFE10621:
	.size	_ZNK4juce10Expression4Term16getInputIndexForEPKS1_, .-_ZNK4juce10Expression4Term16getInputIndexForEPKS1_
	.section	.text._ZNK4juce10Expression4Term21getOperatorPrecedenceEv,"axG",@progbits,_ZNK4juce10Expression4Term21getOperatorPrecedenceEv,comdat
	.align 2
	.p2align 4
	.weak	_ZNK4juce10Expression4Term21getOperatorPrecedenceEv
	.type	_ZNK4juce10Expression4Term21getOperatorPrecedenceEv, @function
_ZNK4juce10Expression4Term21getOperatorPrecedenceEv:
.LFB10622:
	.cfi_startproc
	xorl	%eax, %eax
	ret
	.cfi_endproc
.LFE10622:
	.size	_ZNK4juce10Expression4Term21getOperatorPrecedenceEv, .-_ZNK4juce10Expression4Term21getOperatorPrecedenceEv
	.section	.text._ZNK4juce10Expression4Term12getNumInputsEv,"axG",@progbits,_ZNK4juce10Expression4Term12getNumInputsEv,comdat
	.align 2
	.p2align 4
	.weak	_ZNK4juce10Expression4Term12getNumInputsEv
	.type	_ZNK4juce10Expression4Term12getNumInputsEv, @function
_ZNK4juce10Expression4Term12getNumInputsEv:
.LFB10623:
	.cfi_startproc
	xorl	%eax, %eax
	ret
	.cfi_endproc
.LFE10623:
	.size	_ZNK4juce10Expression4Term12getNumInputsEv, .-_ZNK4juce10Expression4Term12getNumInputsEv
	.section	.text._ZNK4juce10Expression4Term8getInputEi,"axG",@progbits,_ZNK4juce10Expression4Term8getInputEi,comdat
	.align 2
	.p2align 4
	.weak	_ZNK4juce10Expression4Term8getInputEi
	.type	_ZNK4juce10Expression4Term8getInputEi, @function
_ZNK4juce10Expression4Term8getInputEi:
.LFB10624:
	.cfi_startproc
	xorl	%eax, %eax
	ret
	.cfi_endproc
.LFE10624:
	.size	_ZNK4juce10Expression4Term8getInputEi, .-_ZNK4juce10Expression4Term8getInputEi
	.section	.text._ZNK4juce10Expression4Term25createTermToEvaluateInputERKNS0_5ScopeEPKS1_dPS1_,"axG",@progbits,_ZNK4juce10Expression4Term25createTermToEvaluateInputERKNS0_5ScopeEPKS1_dPS1_,comdat
	.align 2
	.p2align 4
	.weak	_ZNK4juce10Expression4Term25createTermToEvaluateInputERKNS0_5ScopeEPKS1_dPS1_
	.type	_ZNK4juce10Expression4Term25createTermToEvaluateInputERKNS0_5ScopeEPKS1_dPS1_, @function
_ZNK4juce10Expression4Term25createTermToEvaluateInputERKNS0_5ScopeEPKS1_dPS1_:
.LFB10625:
	.cfi_startproc
	movq	$0, (%rdi)
	movq	%rdi, %rax
	ret
	.cfi_endproc
.LFE10625:
	.size	_ZNK4juce10Expression4Term25createTermToEvaluateInputERKNS0_5ScopeEPKS1_dPS1_, .-_ZNK4juce10Expression4Term25createTermToEvaluateInputERKNS0_5ScopeEPKS1_dPS1_
	.section	.text._ZNK4juce10Expression4Term7getNameEv,"axG",@progbits,_ZNK4juce10Expression4Term7getNameEv,comdat
	.align 2
	.p2align 4
	.weak	_ZNK4juce10Expression4Term7getNameEv
	.type	_ZNK4juce10Expression4Term7getNameEv, @function
_ZNK4juce10Expression4Term7getNameEv:
.LFB10629:
	.cfi_startproc
	leaq	16+_ZN4juceL11emptyStringE(%rip), %rdx
	movq	%rdi, %rax
	movq	%rdx, (%rdi)
	ret
	.cfi_endproc
.LFE10629:
	.size	_ZNK4juce10Expression4Term7getNameEv, .-_ZNK4juce10Expression4Term7getNameEv
	.section	.text._ZNK4juce10Expression7Helpers8Constant7getTypeEv,"axG",@progbits,_ZNK4juce10Expression7Helpers8Constant7getTypeEv,comdat
	.align 2
	.p2align 4
	.weak	_ZNK4juce10Expression7Helpers8Constant7getTypeEv
	.type	_ZNK4juce10Expression7Helpers8Constant7getTypeEv, @function
_ZNK4juce10Expression7Helpers8Constant7getTypeEv:
.LFB10647:
	.cfi_startproc
	xorl	%eax, %eax
	ret
	.cfi_endproc
.LFE10647:
	.size	_ZNK4juce10Expression7Helpers8Constant7getTypeEv, .-_ZNK4juce10Expression7Helpers8Constant7getTypeEv
	.section	.text._ZN4juce10Expression7Helpers8Constant7resolveERKNS0_5ScopeEi,"axG",@progbits,_ZN4juce10Expression7Helpers8Constant7resolveERKNS0_5ScopeEi,comdat
	.align 2
	.p2align 4
	.weak	_ZN4juce10Expression7Helpers8Constant7resolveERKNS0_5ScopeEi
	.type	_ZN4juce10Expression7Helpers8Constant7resolveERKNS0_5ScopeEi, @function
_ZN4juce10Expression7Helpers8Constant7resolveERKNS0_5ScopeEi:
.LFB10649:
	.cfi_startproc
	addl	$1, 8(%rsi)
	movq	%rdi, %rax
	movq	%rsi, (%rdi)
	ret
	.cfi_endproc
.LFE10649:
	.size	_ZN4juce10Expression7Helpers8Constant7resolveERKNS0_5ScopeEi, .-_ZN4juce10Expression7Helpers8Constant7resolveERKNS0_5ScopeEi
	.section	.text._ZNK4juce10Expression7Helpers8Constant8toDoubleEv,"axG",@progbits,_ZNK4juce10Expression7Helpers8Constant8toDoubleEv,comdat
	.align 2
	.p2align 4
	.weak	_ZNK4juce10Expression7Helpers8Constant8toDoubleEv
	.type	_ZNK4juce10Expression7Helpers8Constant8toDoubleEv, @function
_ZNK4juce10Expression7Helpers8Constant8toDoubleEv:
.LFB10650:
	.cfi_startproc
	movsd	16(%rdi), %xmm0
	ret
	.cfi_endproc
.LFE10650:
	.size	_ZNK4juce10Expression7Helpers8Constant8toDoubleEv, .-_ZNK4juce10Expression7Helpers8Constant8toDoubleEv
	.section	.text._ZNK4juce10Expression7Helpers10BinaryTerm16getInputIndexForEPKNS0_4TermE,"axG",@progbits,_ZNK4juce10Expression7Helpers10BinaryTerm16getInputIndexForEPKNS0_4TermE,comdat
	.align 2
	.p2align 4
	.weak	_ZNK4juce10Expression7Helpers10BinaryTerm16getInputIndexForEPKNS0_4TermE
	.type	_ZNK4juce10Expression7Helpers10BinaryTerm16getInputIndexForEPKNS0_4TermE, @function
_ZNK4juce10Expression7Helpers10BinaryTerm16getInputIndexForEPKNS0_4TermE:
.LFB10656:
	.cfi_startproc
	xorl	%eax, %eax
	cmpq	16(%rdi), %rsi
	je	.L17
	xorl	%eax, %eax
	cmpq	24(%rdi), %rsi
	sete	%al
	leal	-1(%rax,%rax), %eax
.L17:
	ret
	.cfi_endproc
.LFE10656:
	.size	_ZNK4juce10Expression7Helpers10BinaryTerm16getInputIndexForEPKNS0_4TermE, .-_ZNK4juce10Expression7Helpers10BinaryTerm16getInputIndexForEPKNS0_4TermE
	.section	.text._ZNK4juce10Expression7Helpers10BinaryTerm7getTypeEv,"axG",@progbits,_ZNK4juce10Expression7Helpers10BinaryTerm7getTypeEv,comdat
	.align 2
	.p2align 4
	.weak	_ZNK4juce10Expression7Helpers10BinaryTerm7getTypeEv
	.type	_ZNK4juce10Expression7Helpers10BinaryTerm7getTypeEv, @function
_ZNK4juce10Expression7Helpers10BinaryTerm7getTypeEv:
.LFB10657:
	.cfi_startproc
	movl	$2, %eax
	ret
	.cfi_endproc
.LFE10657:
	.size	_ZNK4juce10Expression7Helpers10BinaryTerm7getTypeEv, .-_ZNK4juce10Expression7Helpers10BinaryTerm7getTypeEv
	.section	.text._ZNK4juce10Expression7Helpers10BinaryTerm12getNumInputsEv,"axG",@progbits,_ZNK4juce10Expression7Helpers10BinaryTerm12getNumInputsEv,comdat
	.align 2
	.p2align 4
	.weak	_ZNK4juce10Expression7Helpers10BinaryTerm12getNumInputsEv
	.type	_ZNK4juce10Expression7Helpers10BinaryTerm12getNumInputsEv, @function
_ZNK4juce10Expression7Helpers10BinaryTerm12getNumInputsEv:
.LFB10658:
	.cfi_startproc
	movl	$2, %eax
	ret
	.cfi_endproc
.LFE10658:
	.size	_ZNK4juce10Expression7Helpers10BinaryTerm12getNumInputsEv, .-_ZNK4juce10Expression7Helpers10BinaryTerm12getNumInputsEv
	.section	.text._ZNK4juce10Expression7Helpers10BinaryTerm8getInputEi,"axG",@progbits,_ZNK4juce10Expression7Helpers10BinaryTerm8getInputEi,comdat
	.align 2
	.p2align 4
	.weak	_ZNK4juce10Expression7Helpers10BinaryTerm8getInputEi
	.type	_ZNK4juce10Expression7Helpers10BinaryTerm8getInputEi, @function
_ZNK4juce10Expression7Helpers10BinaryTerm8getInputEi:
.LFB10659:
	.cfi_startproc
	testl	%esi, %esi
	jne	.L24
	movq	16(%rdi), %rax
	ret
	.p2align 4,,10
	.p2align 3
.L24:
	xorl	%eax, %eax
	cmpl	$1, %esi
	jne	.L23
	movq	24(%rdi), %rax
.L23:
	ret
	.cfi_endproc
.LFE10659:
	.size	_ZNK4juce10Expression7Helpers10BinaryTerm8getInputEi, .-_ZNK4juce10Expression7Helpers10BinaryTerm8getInputEi
	.section	.text._ZNK4juce10Expression7Helpers10SymbolTerm7getTypeEv,"axG",@progbits,_ZNK4juce10Expression7Helpers10SymbolTerm7getTypeEv,comdat
	.align 2
	.p2align 4
	.weak	_ZNK4juce10Expression7Helpers10SymbolTerm7getTypeEv
	.type	_ZNK4juce10Expression7Helpers10SymbolTerm7getTypeEv, @function
_ZNK4juce10Expression7Helpers10SymbolTerm7getTypeEv:
.LFB10667:
	.cfi_startproc
	movl	$3, %eax
	ret
	.cfi_endproc
.LFE10667:
	.size	_ZNK4juce10Expression7Helpers10SymbolTerm7getTypeEv, .-_ZNK4juce10Expression7Helpers10SymbolTerm7getTypeEv
	.section	.text._ZNK4juce10Expression7Helpers8Function7getTypeEv,"axG",@progbits,_ZNK4juce10Expression7Helpers8Function7getTypeEv,comdat
	.align 2
	.p2align 4
	.weak	_ZNK4juce10Expression7Helpers8Function7getTypeEv
	.type	_ZNK4juce10Expression7Helpers8Function7getTypeEv, @function
_ZNK4juce10Expression7Helpers8Function7getTypeEv:
.LFB10694:
	.cfi_startproc
	movl	$1, %eax
	ret
	.cfi_endproc
.LFE10694:
	.size	_ZNK4juce10Expression7Helpers8Function7getTypeEv, .-_ZNK4juce10Expression7Helpers8Function7getTypeEv
	.section	.text._ZNK4juce10Expression7Helpers8Function12getNumInputsEv,"axG",@progbits,_ZNK4juce10Expression7Helpers8Function12getNumInputsEv,comdat
	.align 2
	.p2align 4
	.weak	_ZNK4juce10Expression7Helpers8Function12getNumInputsEv
	.type	_ZNK4juce10Expression7Helpers8Function12getNumInputsEv, @function
_ZNK4juce10Expression7Helpers8Function12getNumInputsEv:
.LFB10696:
	.cfi_startproc
	movl	36(%rdi), %eax
	ret
	.cfi_endproc
.LFE10696:
	.size	_ZNK4juce10Expression7Helpers8Function12getNumInputsEv, .-_ZNK4juce10Expression7Helpers8Function12getNumInputsEv
	.section	.text._ZNK4juce10Expression7Helpers8Function8getInputEi,"axG",@progbits,_ZNK4juce10Expression7Helpers8Function8getInputEi,comdat
	.align 2
	.p2align 4
	.weak	_ZNK4juce10Expression7Helpers8Function8getInputEi
	.type	_ZNK4juce10Expression7Helpers8Function8getInputEi, @function
_ZNK4juce10Expression7Helpers8Function8getInputEi:
.LFB10697:
	.cfi_startproc
	movq	24(%rdi), %rax
	movslq	%esi, %rsi
	movq	(%rax,%rsi,8), %rax
	ret
	.cfi_endproc
.LFE10697:
	.size	_ZNK4juce10Expression7Helpers8Function8getInputEi, .-_ZNK4juce10Expression7Helpers8Function8getInputEi
	.section	.text._ZNK4juce10Expression7Helpers8Function16getInputIndexForEPKNS0_4TermE,"axG",@progbits,_ZNK4juce10Expression7Helpers8Function16getInputIndexForEPKNS0_4TermE,comdat
	.align 2
	.p2align 4
	.weak	_ZNK4juce10Expression7Helpers8Function16getInputIndexForEPKNS0_4TermE
	.type	_ZNK4juce10Expression7Helpers8Function16getInputIndexForEPKNS0_4TermE, @function
_ZNK4juce10Expression7Helpers8Function16getInputIndexForEPKNS0_4TermE:
.LFB10700:
	.cfi_startproc
	movl	36(%rdi), %edx
	testl	%edx, %edx
	jle	.L36
	movq	24(%rdi), %rcx
	xorl	%eax, %eax
	jmp	.L35
	.p2align 4
	.p2align 4,,10
	.p2align 3
.L38:
	addq	$1, %rax
	cmpq	%rax, %rdx
	je	.L36
.L35:
	cmpq	%rsi, (%rcx,%rax,8)
	jne	.L38
	ret
	.p2align 4,,10
	.p2align 3
.L36:
	movl	$-1, %eax
	ret
	.cfi_endproc
.LFE10700:
	.size	_ZNK4juce10Expression7Helpers8Function16getInputIndexForEPKNS0_4TermE, .-_ZNK4juce10Expression7Helpers8Function16getInputIndexForEPKNS0_4TermE
	.section	.text._ZN4juce10Expression7Helpers11DotOperator17EvaluationVisitorD2Ev,"axG",@progbits,_ZN4juce10Expression7Helpers11DotOperator17EvaluationVisitorD5Ev,comdat
	.align 2
	.p2align 4
	.weak	_ZN4juce10Expression7Helpers11DotOperator17EvaluationVisitorD2Ev
	.type	_ZN4juce10Expression7Helpers11DotOperator17EvaluationVisitorD2Ev, @function
_ZN4juce10Expression7Helpers11DotOperator17EvaluationVisitorD2Ev:
.LFB10715:
	.cfi_startproc
	leaq	16+_ZTVN4juce10Expression7Helpers11DotOperator17EvaluationVisitorE(%rip), %rcx
	movq	%rdi, %rax
	movq	%rcx, (%rdi)
	movq	16(%rdi), %rdi
	testq	%rdi, %rdi
	je	.L49
	subl	$1, 8(%rdi)
	jne	.L49
	subq	$24, %rsp
	.cfi_def_cfa_offset 32
	movq	(%rdi), %rdx
	movq	%rax, 8(%rsp)
	call	*8(%rdx)
	movq	8(%rsp), %rax
	movq	8(%rax), %rdi
	testq	%rdi, %rdi
	je	.L39
	subl	$1, 8(%rdi)
	jne	.L39
	movq	(%rdi), %rax
	movq	8(%rax), %rax
	addq	$24, %rsp
	.cfi_def_cfa_offset 8
	jmp	*%rax
	.p2align 4,,10
	.p2align 3
.L49:
	movq	8(%rax), %rdi
	testq	%rdi, %rdi
	je	.L51
	subl	$1, 8(%rdi)
	jne	.L51
	movq	(%rdi), %rax
	jmp	*8(%rax)
	.p2align 4,,10
	.p2align 3
.L51:
	ret
	.p2align 4,,10
	.p2align 3
.L39:
	.cfi_def_cfa_offset 32
	addq	$24, %rsp
	.cfi_def_cfa_offset 8
	ret
	.cfi_endproc
.LFE10715:
	.size	_ZN4juce10Expression7Helpers11DotOperator17EvaluationVisitorD2Ev, .-_ZN4juce10Expression7Helpers11DotOperator17EvaluationVisitorD2Ev
	.weak	_ZN4juce10Expression7Helpers11DotOperator17EvaluationVisitorD1Ev
	.set	_ZN4juce10Expression7Helpers11DotOperator17EvaluationVisitorD1Ev,_ZN4juce10Expression7Helpers11DotOperator17EvaluationVisitorD2Ev
	.section	.text._ZNK4juce10Expression7Helpers11DotOperator21getOperatorPrecedenceEv,"axG",@progbits,_ZNK4juce10Expression7Helpers11DotOperator21getOperatorPrecedenceEv,comdat
	.align 2
	.p2align 4
	.weak	_ZNK4juce10Expression7Helpers11DotOperator21getOperatorPrecedenceEv
	.type	_ZNK4juce10Expression7Helpers11DotOperator21getOperatorPrecedenceEv, @function
_ZNK4juce10Expression7Helpers11DotOperator21getOperatorPrecedenceEv:
.LFB10720:
	.cfi_startproc
	movl	$1, %eax
	ret
	.cfi_endproc
.LFE10720:
	.size	_ZNK4juce10Expression7Helpers11DotOperator21getOperatorPrecedenceEv, .-_ZNK4juce10Expression7Helpers11DotOperator21getOperatorPrecedenceEv
	.section	.text._ZNK4juce10Expression7Helpers11DotOperator15performFunctionEdd,"axG",@progbits,_ZNK4juce10Expression7Helpers11DotOperator15performFunctionEdd,comdat
	.align 2
	.p2align 4
	.weak	_ZNK4juce10Expression7Helpers11DotOperator15performFunctionEdd
	.type	_ZNK4juce10Expression7Helpers11DotOperator15performFunctionEdd, @function
_ZNK4juce10Expression7Helpers11DotOperator15performFunctionEdd:
.LFB10722:
	.cfi_startproc
	pxor	%xmm0, %xmm0
	ret
	.cfi_endproc
.LFE10722:
	.size	_ZNK4juce10Expression7Helpers11DotOperator15performFunctionEdd, .-_ZNK4juce10Expression7Helpers11DotOperator15performFunctionEdd
	.section	.text._ZN4juce10Expression7Helpers11DotOperator21SymbolVisitingVisitorD2Ev,"axG",@progbits,_ZN4juce10Expression7Helpers11DotOperator21SymbolVisitingVisitorD5Ev,comdat
	.align 2
	.p2align 4
	.weak	_ZN4juce10Expression7Helpers11DotOperator21SymbolVisitingVisitorD2Ev
	.type	_ZN4juce10Expression7Helpers11DotOperator21SymbolVisitingVisitorD2Ev, @function
_ZN4juce10Expression7Helpers11DotOperator21SymbolVisitingVisitorD2Ev:
.LFB10725:
	.cfi_startproc
	leaq	16+_ZTVN4juce10Expression7Helpers11DotOperator21SymbolVisitingVisitorE(%rip), %rax
	movq	%rax, (%rdi)
	movq	8(%rdi), %rdi
	testq	%rdi, %rdi
	je	.L57
	subl	$1, 8(%rdi)
	jne	.L57
	movq	(%rdi), %rax
	jmp	*8(%rax)
	.p2align 4,,10
	.p2align 3
.L57:
	ret
	.cfi_endproc
.LFE10725:
	.size	_ZN4juce10Expression7Helpers11DotOperator21SymbolVisitingVisitorD2Ev, .-_ZN4juce10Expression7Helpers11DotOperator21SymbolVisitingVisitorD2Ev
	.weak	_ZN4juce10Expression7Helpers11DotOperator21SymbolVisitingVisitorD1Ev
	.set	_ZN4juce10Expression7Helpers11DotOperator21SymbolVisitingVisitorD1Ev,_ZN4juce10Expression7Helpers11DotOperator21SymbolVisitingVisitorD2Ev
	.section	.text._ZN4juce10Expression7Helpers11DotOperator17EvaluationVisitor5visitERKNS0_5ScopeE,"axG",@progbits,_ZN4juce10Expression7Helpers11DotOperator17EvaluationVisitor5visitERKNS0_5ScopeE,comdat
	.align 2
	.p2align 4
	.weak	_ZN4juce10Expression7Helpers11DotOperator17EvaluationVisitor5visitERKNS0_5ScopeE
	.type	_ZN4juce10Expression7Helpers11DotOperator17EvaluationVisitor5visitERKNS0_5ScopeE, @function
_ZN4juce10Expression7Helpers11DotOperator17EvaluationVisitor5visitERKNS0_5ScopeE:
.LFB10739:
	.cfi_startproc
	pushq	%rbx
	.cfi_def_cfa_offset 16
	.cfi_offset 3, -16
	movq	%rdi, %rbx
	subq	$16, %rsp
	.cfi_def_cfa_offset 32
	movl	24(%rbx), %ecx
	movq	%fs:40, %rdx
	movq	%rdx, 8(%rsp)
	movq	%rsi, %rdx
	movq	8(%rdi), %rsi
	movq	%rsp, %rdi
	movq	(%rsi), %rax
	call	*32(%rax)
	movq	16(%rbx), %rdi
	movq	(%rsp), %rax
	movq	%rdi, (%rsp)
	movq	%rax, 16(%rbx)
	testq	%rdi, %rdi
	je	.L62
	subl	$1, 8(%rdi)
	je	.L69
.L62:
	movq	8(%rsp), %rax
	subq	%fs:40, %rax
	jne	.L70
	addq	$16, %rsp
	.cfi_remember_state
	.cfi_def_cfa_offset 16
	popq	%rbx
	.cfi_def_cfa_offset 8
	ret
	.p2align 4,,10
	.p2align 3
.L69:
	.cfi_restore_state
	movq	(%rdi), %rax
	call	*8(%rax)
	jmp	.L62
.L70:
	call	__stack_chk_fail@PLT
	.cfi_endproc
.LFE10739:
	.size	_ZN4juce10Expression7Helpers11DotOperator17EvaluationVisitor5visitERKNS0_5ScopeE, .-_ZN4juce10Expression7Helpers11DotOperator17EvaluationVisitor5visitERKNS0_5ScopeE
	.section	.text._ZNK4juce10Expression7Helpers6Negate7getTypeEv,"axG",@progbits,_ZNK4juce10Expression7Helpers6Negate7getTypeEv,comdat
	.align 2
	.p2align 4
	.weak	_ZNK4juce10Expression7Helpers6Negate7getTypeEv
	.type	_ZNK4juce10Expression7Helpers6Negate7getTypeEv, @function
_ZNK4juce10Expression7Helpers6Negate7getTypeEv:
.LFB10752:
	.cfi_startproc
	movl	$2, %eax
	ret
	.cfi_endproc
.LFE10752:
	.size	_ZNK4juce10Expression7Helpers6Negate7getTypeEv, .-_ZNK4juce10Expression7Helpers6Negate7getTypeEv
	.section	.text._ZNK4juce10Expression7Helpers6Negate16getInputIndexForEPKNS0_4TermE,"axG",@progbits,_ZNK4juce10Expression7Helpers6Negate16getInputIndexForEPKNS0_4TermE,comdat
	.align 2
	.p2align 4
	.weak	_ZNK4juce10Expression7Helpers6Negate16getInputIndexForEPKNS0_4TermE
	.type	_ZNK4juce10Expression7Helpers6Negate16getInputIndexForEPKNS0_4TermE, @function
_ZNK4juce10Expression7Helpers6Negate16getInputIndexForEPKNS0_4TermE:
.LFB10753:
	.cfi_startproc
	xorl	%eax, %eax
	cmpq	%rsi, 16(%rdi)
	setne	%al
	negl	%eax
	ret
	.cfi_endproc
.LFE10753:
	.size	_ZNK4juce10Expression7Helpers6Negate16getInputIndexForEPKNS0_4TermE, .-_ZNK4juce10Expression7Helpers6Negate16getInputIndexForEPKNS0_4TermE
	.section	.text._ZNK4juce10Expression7Helpers6Negate12getNumInputsEv,"axG",@progbits,_ZNK4juce10Expression7Helpers6Negate12getNumInputsEv,comdat
	.align 2
	.p2align 4
	.weak	_ZNK4juce10Expression7Helpers6Negate12getNumInputsEv
	.type	_ZNK4juce10Expression7Helpers6Negate12getNumInputsEv, @function
_ZNK4juce10Expression7Helpers6Negate12getNumInputsEv:
.LFB10754:
	.cfi_startproc
	movl	$1, %eax
	ret
	.cfi_endproc
.LFE10754:
	.size	_ZNK4juce10Expression7Helpers6Negate12getNumInputsEv, .-_ZNK4juce10Expression7Helpers6Negate12getNumInputsEv
	.section	.text._ZNK4juce10Expression7Helpers6Negate8getInputEi,"axG",@progbits,_ZNK4juce10Expression7Helpers6Negate8getInputEi,comdat
	.align 2
	.p2align 4
	.weak	_ZNK4juce10Expression7Helpers6Negate8getInputEi
	.type	_ZNK4juce10Expression7Helpers6Negate8getInputEi, @function
_ZNK4juce10Expression7Helpers6Negate8getInputEi:
.LFB10755:
	.cfi_startproc
	xorl	%eax, %eax
	testl	%esi, %esi
	jne	.L74
	movq	16(%rdi), %rax
.L74:
	ret
	.cfi_endproc
.LFE10755:
	.size	_ZNK4juce10Expression7Helpers6Negate8getInputEi, .-_ZNK4juce10Expression7Helpers6Negate8getInputEi
	.section	.text._ZN4juce10Expression7Helpers6Negate7negatedEv,"axG",@progbits,_ZN4juce10Expression7Helpers6Negate7negatedEv,comdat
	.align 2
	.p2align 4
	.weak	_ZN4juce10Expression7Helpers6Negate7negatedEv
	.type	_ZN4juce10Expression7Helpers6Negate7negatedEv, @function
_ZN4juce10Expression7Helpers6Negate7negatedEv:
.LFB10759:
	.cfi_startproc
	movq	16(%rsi), %rax
	movq	%rax, (%rdi)
	testq	%rax, %rax
	je	.L77
	addl	$1, 8(%rax)
.L77:
	movq	%rdi, %rax
	ret
	.cfi_endproc
.LFE10759:
	.size	_ZN4juce10Expression7Helpers6Negate7negatedEv, .-_ZN4juce10Expression7Helpers6Negate7negatedEv
	.section	.text._ZNK4juce10Expression7Helpers3Add15performFunctionEdd,"axG",@progbits,_ZNK4juce10Expression7Helpers3Add15performFunctionEdd,comdat
	.align 2
	.p2align 4
	.weak	_ZNK4juce10Expression7Helpers3Add15performFunctionEdd
	.type	_ZNK4juce10Expression7Helpers3Add15performFunctionEdd, @function
_ZNK4juce10Expression7Helpers3Add15performFunctionEdd:
.LFB10766:
	.cfi_startproc
	addsd	%xmm1, %xmm0
	ret
	.cfi_endproc
.LFE10766:
	.size	_ZNK4juce10Expression7Helpers3Add15performFunctionEdd, .-_ZNK4juce10Expression7Helpers3Add15performFunctionEdd
	.section	.text._ZNK4juce10Expression7Helpers3Add21getOperatorPrecedenceEv,"axG",@progbits,_ZNK4juce10Expression7Helpers3Add21getOperatorPrecedenceEv,comdat
	.align 2
	.p2align 4
	.weak	_ZNK4juce10Expression7Helpers3Add21getOperatorPrecedenceEv
	.type	_ZNK4juce10Expression7Helpers3Add21getOperatorPrecedenceEv, @function
_ZNK4juce10Expression7Helpers3Add21getOperatorPrecedenceEv:
.LFB10767:
	.cfi_startproc
	movl	$3, %eax
	ret
	.cfi_endproc
.LFE10767:
	.size	_ZNK4juce10Expression7Helpers3Add21getOperatorPrecedenceEv, .-_ZNK4juce10Expression7Helpers3Add21getOperatorPrecedenceEv
	.section	.text._ZNK4juce10Expression7Helpers8Subtract15performFunctionEdd,"axG",@progbits,_ZNK4juce10Expression7Helpers8Subtract15performFunctionEdd,comdat
	.align 2
	.p2align 4
	.weak	_ZNK4juce10Expression7Helpers8Subtract15performFunctionEdd
	.type	_ZNK4juce10Expression7Helpers8Subtract15performFunctionEdd, @function
_ZNK4juce10Expression7Helpers8Subtract15performFunctionEdd:
.LFB10775:
	.cfi_startproc
	subsd	%xmm1, %xmm0
	ret
	.cfi_endproc
.LFE10775:
	.size	_ZNK4juce10Expression7Helpers8Subtract15performFunctionEdd, .-_ZNK4juce10Expression7Helpers8Subtract15performFunctionEdd
	.section	.text._ZNK4juce10Expression7Helpers8Subtract21getOperatorPrecedenceEv,"axG",@progbits,_ZNK4juce10Expression7Helpers8Subtract21getOperatorPrecedenceEv,comdat
	.align 2
	.p2align 4
	.weak	_ZNK4juce10Expression7Helpers8Subtract21getOperatorPrecedenceEv
	.type	_ZNK4juce10Expression7Helpers8Subtract21getOperatorPrecedenceEv, @function
_ZNK4juce10Expression7Helpers8Subtract21getOperatorPrecedenceEv:
.LFB10776:
	.cfi_startproc
	movl	$3, %eax
	ret
	.cfi_endproc
.LFE10776:
	.size	_ZNK4juce10Expression7Helpers8Subtract21getOperatorPrecedenceEv, .-_ZNK4juce10Expression7Helpers8Subtract21getOperatorPrecedenceEv
	.section	.text._ZNK4juce10Expression7Helpers8Multiply15performFunctionEdd,"axG",@progbits,_ZNK4juce10Expression7Helpers8Multiply15performFunctionEdd,comdat
	.align 2
	.p2align 4
	.weak	_ZNK4juce10Expression7Helpers8Multiply15performFunctionEdd
	.type	_ZNK4juce10Expression7Helpers8Multiply15performFunctionEdd, @function
_ZNK4juce10Expression7Helpers8Multiply15performFunctionEdd:
.LFB10784:
	.cfi_startproc
	mulsd	%xmm1, %xmm0
	ret
	.cfi_endproc
.LFE10784:
	.size	_ZNK4juce10Expression7Helpers8Multiply15performFunctionEdd, .-_ZNK4juce10Expression7Helpers8Multiply15performFunctionEdd
	.section	.text._ZNK4juce10Expression7Helpers8Multiply21getOperatorPrecedenceEv,"axG",@progbits,_ZNK4juce10Expression7Helpers8Multiply21getOperatorPrecedenceEv,comdat
	.align 2
	.p2align 4
	.weak	_ZNK4juce10Expression7Helpers8Multiply21getOperatorPrecedenceEv
	.type	_ZNK4juce10Expression7Helpers8Multiply21getOperatorPrecedenceEv, @function
_ZNK4juce10Expression7Helpers8Multiply21getOperatorPrecedenceEv:
.LFB10787:
	.cfi_startproc
	movl	$2, %eax
	ret
	.cfi_endproc
.LFE10787:
	.size	_ZNK4juce10Expression7Helpers8Multiply21getOperatorPrecedenceEv, .-_ZNK4juce10Expression7Helpers8Multiply21getOperatorPrecedenceEv
	.section	.text._ZNK4juce10Expression7Helpers6Divide15performFunctionEdd,"axG",@progbits,_ZNK4juce10Expression7Helpers6Divide15performFunctionEdd,comdat
	.align 2
	.p2align 4
	.weak	_ZNK4juce10Expression7Helpers6Divide15performFunctionEdd
	.type	_ZNK4juce10Expression7Helpers6Divide15performFunctionEdd, @function
_ZNK4juce10Expression7Helpers6Divide15performFunctionEdd:
.LFB10793:
	.cfi_startproc
	divsd	%xmm1, %xmm0
	ret
	.cfi_endproc
.LFE10793:
	.size	_ZNK4juce10Expression7Helpers6Divide15performFunctionEdd, .-_ZNK4juce10Expression7Helpers6Divide15performFunctionEdd
	.section	.text._ZNK4juce10Expression7Helpers6Divide21getOperatorPrecedenceEv,"axG",@progbits,_ZNK4juce10Expression7Helpers6Divide21getOperatorPrecedenceEv,comdat
	.align 2
	.p2align 4
	.weak	_ZNK4juce10Expression7Helpers6Divide21getOperatorPrecedenceEv
	.type	_ZNK4juce10Expression7Helpers6Divide21getOperatorPrecedenceEv, @function
_ZNK4juce10Expression7Helpers6Divide21getOperatorPrecedenceEv:
.LFB10796:
	.cfi_startproc
	movl	$2, %eax
	ret
	.cfi_endproc
.LFE10796:
	.size	_ZNK4juce10Expression7Helpers6Divide21getOperatorPrecedenceEv, .-_ZNK4juce10Expression7Helpers6Divide21getOperatorPrecedenceEv
	.section	.text._ZN4juce10Expression7Helpers18SymbolCheckVisitorD2Ev,"axG",@progbits,_ZN4juce10Expression7Helpers18SymbolCheckVisitorD5Ev,comdat
	.align 2
	.p2align 4
	.weak	_ZN4juce10Expression7Helpers18SymbolCheckVisitorD2Ev
	.type	_ZN4juce10Expression7Helpers18SymbolCheckVisitorD2Ev, @function
_ZN4juce10Expression7Helpers18SymbolCheckVisitorD2Ev:
.LFB10875:
	.cfi_startproc
	ret
	.cfi_endproc
.LFE10875:
	.size	_ZN4juce10Expression7Helpers18SymbolCheckVisitorD2Ev, .-_ZN4juce10Expression7Helpers18SymbolCheckVisitorD2Ev
	.weak	_ZN4juce10Expression7Helpers18SymbolCheckVisitorD1Ev
	.set	_ZN4juce10Expression7Helpers18SymbolCheckVisitorD1Ev,_ZN4juce10Expression7Helpers18SymbolCheckVisitorD2Ev
	.section	.text._ZN4juce10Expression7Helpers17SymbolListVisitorD2Ev,"axG",@progbits,_ZN4juce10Expression7Helpers17SymbolListVisitorD5Ev,comdat
	.align 2
	.p2align 4
	.weak	_ZN4juce10Expression7Helpers17SymbolListVisitorD2Ev
	.type	_ZN4juce10Expression7Helpers17SymbolListVisitorD2Ev, @function
_ZN4juce10Expression7Helpers17SymbolListVisitorD2Ev:
.LFB10880:
	.cfi_startproc
	ret
	.cfi_endproc
.LFE10880:
	.size	_ZN4juce10Expression7Helpers17SymbolListVisitorD2Ev, .-_ZN4juce10Expression7Helpers17SymbolListVisitorD2Ev
	.weak	_ZN4juce10Expression7Helpers17SymbolListVisitorD1Ev
	.set	_ZN4juce10Expression7Helpers17SymbolListVisitorD1Ev,_ZN4juce10Expression7Helpers17SymbolListVisitorD2Ev
	.text
	.align 2
	.p2align 4
	.globl	_ZN4juce10Expression5ScopeD2Ev
	.type	_ZN4juce10Expression5ScopeD2Ev, @function
_ZN4juce10Expression5ScopeD2Ev:
.LFB10899:
	.cfi_startproc
	ret
	.cfi_endproc
.LFE10899:
	.size	_ZN4juce10Expression5ScopeD2Ev, .-_ZN4juce10Expression5ScopeD2Ev
	.globl	_ZN4juce10Expression5ScopeD1Ev
	.set	_ZN4juce10Expression5ScopeD1Ev,_ZN4juce10Expression5ScopeD2Ev
	.section	.text._ZN4juce9NamedPipe5Pimpl13signalHandlerEi,"axG",@progbits,_ZN4juce9NamedPipe5Pimpl13signalHandlerEi,comdat
	.p2align 4
	.weak	_ZN4juce9NamedPipe5Pimpl13signalHandlerEi
	.type	_ZN4juce9NamedPipe5Pimpl13signalHandlerEi, @function
_ZN4juce9NamedPipe5Pimpl13signalHandlerEi:
.LFB11357:
	.cfi_startproc
	ret
	.cfi_endproc
.LFE11357:
	.size	_ZN4juce9NamedPipe5Pimpl13signalHandlerEi, .-_ZN4juce9NamedPipe5Pimpl13signalHandlerEi
	.text
	.align 2
	.p2align 4
	.globl	_ZN4juce19BufferedInputStream14getTotalLengthEv
	.type	_ZN4juce19BufferedInputStream14getTotalLengthEv, @function
_ZN4juce19BufferedInputStream14getTotalLengthEv:
.LFB11527:
	.cfi_startproc
	movq	8(%rdi), %rdi
	movq	(%rdi), %rax
	jmp	*16(%rax)
	.cfi_endproc
.LFE11527:
	.size	_ZN4juce19BufferedInputStream14getTotalLengthEv, .-_ZN4juce19BufferedInputStream14getTotalLengthEv
	.align 2
	.p2align 4
	.globl	_ZN4juce19BufferedInputStream11getPositionEv
	.type	_ZN4juce19BufferedInputStream11getPositionEv, @function
_ZN4juce19BufferedInputStream11getPositionEv:
.LFB11528:
	.cfi_startproc
	movq	40(%rdi), %rax
	ret
	.cfi_endproc
.LFE11528:
	.size	_ZN4juce19BufferedInputStream11getPositionEv, .-_ZN4juce19BufferedInputStream11getPositionEv
	.align 2
	.p2align 4
	.globl	_ZN4juce19BufferedInputStream11setPositionEx
	.type	_ZN4juce19BufferedInputStream11setPositionEx, @function
_ZN4juce19BufferedInputStream11setPositionEx:
.LFB11529:
	.cfi_startproc
	xorl	%eax, %eax
	testq	%rsi, %rsi
	cmovs	%rax, %rsi
	movl	$1, %eax
	movq	%rsi, 40(%rdi)
	ret
	.cfi_endproc
.LFE11529:
	.size	_ZN4juce19BufferedInputStream11setPositionEx, .-_ZN4juce19BufferedInputStream11setPositionEx
	.align 2
	.p2align 4
	.globl	_ZN4juce19BufferedInputStream11isExhaustedEv
	.type	_ZN4juce19BufferedInputStream11isExhaustedEv, @function
_ZN4juce19BufferedInputStream11isExhaustedEv:
.LFB11530:
	.cfi_startproc
	movq	56(%rdi), %rax
	cmpq	%rax, 40(%rdi)
	jl	.L98
	movq	8(%rdi), %rdi
	movq	(%rdi), %rax
	jmp	*24(%rax)
	.p2align 4,,10
	.p2align 3
.L98:
	xorl	%eax, %eax
	ret
	.cfi_endproc
.LFE11530:
	.size	_ZN4juce19BufferedInputStream11isExhaustedEv, .-_ZN4juce19BufferedInputStream11isExhaustedEv
	.align 2
	.p2align 4
	.globl	_ZN4juce11InputStream8readByteEv
	.type	_ZN4juce11InputStream8readByteEv, @function
_ZN4juce11InputStream8readByteEv:
.LFB11551:
	.cfi_startproc
	subq	$24, %rsp
	.cfi_def_cfa_offset 32
	movl	$1, %edx
	movq	%fs:40, %rax
	movq	%rax, 8(%rsp)
	xorl	%eax, %eax
	movq	(%rdi), %rax
	movb	$0, 7(%rsp)
	leaq	7(%rsp), %rsi
	call	*32(%rax)
	movzbl	7(%rsp), %eax
	movq	8(%rsp), %rdx
	subq	%fs:40, %rdx
	jne	.L102
	addq	$24, %rsp
	.cfi_remember_state
	.cfi_def_cfa_offset 8
	ret
.L102:
	.cfi_restore_state
	call	__stack_chk_fail@PLT
	.cfi_endproc
.LFE11551:
	.size	_ZN4juce11InputStream8readByteEv, .-_ZN4juce11InputStream8readByteEv
	.align 2
	.p2align 4
	.globl	_ZN4juce11InputStream9readShortEv
	.type	_ZN4juce11InputStream9readShortEv, @function
_ZN4juce11InputStream9readShortEv:
.LFB11553:
	.cfi_startproc
	subq	$24, %rsp
	.cfi_def_cfa_offset 32
	movq	(%rdi), %rax
	movl	$2, %edx
	movq	%fs:40, %rsi
	movq	%rsi, 8(%rsp)
	leaq	6(%rsp), %rsi
	call	*32(%rax)
	cmpl	$2, %eax
	movl	$0, %eax
	cmove	6(%rsp), %ax
	movq	8(%rsp), %rdx
	subq	%fs:40, %rdx
	jne	.L108
	addq	$24, %rsp
	.cfi_remember_state
	.cfi_def_cfa_offset 8
	ret
.L108:
	.cfi_restore_state
	call	__stack_chk_fail@PLT
	.cfi_endproc
.LFE11553:
	.size	_ZN4juce11InputStream9readShortEv, .-_ZN4juce11InputStream9readShortEv
	.align 2
	.p2align 4
	.globl	_ZN4juce11InputStream18readShortBigEndianEv
	.type	_ZN4juce11InputStream18readShortBigEndianEv, @function
_ZN4juce11InputStream18readShortBigEndianEv:
.LFB11554:
	.cfi_startproc
	subq	$24, %rsp
	.cfi_def_cfa_offset 32
	movq	(%rdi), %rax
	movl	$2, %edx
	movq	%fs:40, %rsi
	movq	%rsi, 8(%rsp)
	leaq	6(%rsp), %rsi
	call	*32(%rax)
	cmpl	$2, %eax
	je	.L115
	xorl	%eax, %eax
.L110:
	movq	8(%rsp), %rdx
	subq	%fs:40, %rdx
	jne	.L116
	addq	$24, %rsp
	.cfi_remember_state
	.cfi_def_cfa_offset 8
	ret
	.p2align 4,,10
	.p2align 3
.L115:
	.cfi_restore_state
	movzwl	6(%rsp), %eax
	rolw	$8, %ax
	jmp	.L110
.L116:
	call	__stack_chk_fail@PLT
	.cfi_endproc
.LFE11554:
	.size	_ZN4juce11InputStream18readShortBigEndianEv, .-_ZN4juce11InputStream18readShortBigEndianEv
	.align 2
	.p2align 4
	.globl	_ZN4juce11InputStream7readIntEv
	.type	_ZN4juce11InputStream7readIntEv, @function
_ZN4juce11InputStream7readIntEv:
.LFB11555:
	.cfi_startproc
	subq	$24, %rsp
	.cfi_def_cfa_offset 32
	movq	(%rdi), %rax
	movl	$4, %edx
	movq	%fs:40, %rsi
	movq	%rsi, 8(%rsp)
	leaq	4(%rsp), %rsi
	call	*32(%rax)
	cmpl	$4, %eax
	movl	$0, %eax
	cmove	4(%rsp), %eax
	movq	8(%rsp), %rdx
	subq	%fs:40, %rdx
	jne	.L122
	addq	$24, %rsp
	.cfi_remember_state
	.cfi_def_cfa_offset 8
	ret
.L122:
	.cfi_restore_state
	call	__stack_chk_fail@PLT
	.cfi_endproc
.LFE11555:
	.size	_ZN4juce11InputStream7readIntEv, .-_ZN4juce11InputStream7readIntEv
	.align 2
	.p2align 4
	.globl	_ZN4juce11InputStream16readIntBigEndianEv
	.type	_ZN4juce11InputStream16readIntBigEndianEv, @function
_ZN4juce11InputStream16readIntBigEndianEv:
.LFB11556:
	.cfi_startproc
	subq	$24, %rsp
	.cfi_def_cfa_offset 32
	movq	(%rdi), %rax
	movl	$4, %edx
	movq	%fs:40, %rsi
	movq	%rsi, 8(%rsp)
	leaq	4(%rsp), %rsi
	call	*32(%rax)
	cmpl	$4, %eax
	je	.L129
	xorl	%eax, %eax
.L124:
	movq	8(%rsp), %rdx
	subq	%fs:40, %rdx
	jne	.L130
	addq	$24, %rsp
	.cfi_remember_state
	.cfi_def_cfa_offset 8
	ret
	.p2align 4,,10
	.p2align 3
.L129:
	.cfi_restore_state
	movl	4(%rsp), %eax
	bswap	%eax
	jmp	.L124
.L130:
	call	__stack_chk_fail@PLT
	.cfi_endproc
.LFE11556:
	.size	_ZN4juce11InputStream16readIntBigEndianEv, .-_ZN4juce11InputStream16readIntBigEndianEv
	.align 2
	.p2align 4
	.globl	_ZN4juce11InputStream9readInt64Ev
	.type	_ZN4juce11InputStream9readInt64Ev, @function
_ZN4juce11InputStream9readInt64Ev:
.LFB11558:
	.cfi_startproc
	pushq	%rbx
	.cfi_def_cfa_offset 16
	.cfi_offset 3, -16
	movl	$8, %edx
	subq	$16, %rsp
	.cfi_def_cfa_offset 32
	movq	(%rdi), %rax
	movq	%fs:40, %rbx
	movq	%rbx, 8(%rsp)
	xorl	%ebx, %ebx
	movq	%rsp, %rsi
	call	*32(%rax)
	cmpl	$8, %eax
	movq	%rbx, %rax
	cmove	(%rsp), %rax
	movq	8(%rsp), %rdx
	subq	%fs:40, %rdx
	jne	.L136
	addq	$16, %rsp
	.cfi_remember_state
	.cfi_def_cfa_offset 16
	popq	%rbx
	.cfi_def_cfa_offset 8
	ret
.L136:
	.cfi_restore_state
	call	__stack_chk_fail@PLT
	.cfi_endproc
.LFE11558:
	.size	_ZN4juce11InputStream9readInt64Ev, .-_ZN4juce11InputStream9readInt64Ev
	.align 2
	.p2align 4
	.globl	_ZN4juce11InputStream18readInt64BigEndianEv
	.type	_ZN4juce11InputStream18readInt64BigEndianEv, @function
_ZN4juce11InputStream18readInt64BigEndianEv:
.LFB11559:
	.cfi_startproc
	subq	$24, %rsp
	.cfi_def_cfa_offset 32
	movq	(%rdi), %rax
	movl	$8, %edx
	movq	%fs:40, %rsi
	movq	%rsi, 8(%rsp)
	movq	%rsp, %rsi
	call	*32(%rax)
	cmpl	$8, %eax
	je	.L143
	xorl	%eax, %eax
.L138:
	movq	8(%rsp), %rdx
	subq	%fs:40, %rdx
	jne	.L144
	addq	$24, %rsp
	.cfi_remember_state
	.cfi_def_cfa_offset 8
	ret
	.p2align 4,,10
	.p2align 3
.L143:
	.cfi_restore_state
	movl	(%rsp), %eax
#APP
# 171 "/home/synth/projects/juce/modules/juce_core/memory/juce_ByteOrder.h" 1
	bswap %eax
# 0 "" 2
#NO_APP
	movl	%eax, %edx
	movq	(%rsp), %rax
	salq	$32, %rdx
	shrq	$32, %rax
#APP
# 171 "/home/synth/projects/juce/modules/juce_core/memory/juce_ByteOrder.h" 1
	bswap %eax
# 0 "" 2
#NO_APP
	movl	%eax, %eax
	orq	%rdx, %rax
	jmp	.L138
.L144:
	call	__stack_chk_fail@PLT
	.cfi_endproc
.LFE11559:
	.size	_ZN4juce11InputStream18readInt64BigEndianEv, .-_ZN4juce11InputStream18readInt64BigEndianEv
	.align 2
	.p2align 4
	.globl	_ZN4juce17MemoryInputStream14getTotalLengthEv
	.type	_ZN4juce17MemoryInputStream14getTotalLengthEv, @function
_ZN4juce17MemoryInputStream14getTotalLengthEv:
.LFB11582:
	.cfi_startproc
	movq	16(%rdi), %rax
	ret
	.cfi_endproc
.LFE11582:
	.size	_ZN4juce17MemoryInputStream14getTotalLengthEv, .-_ZN4juce17MemoryInputStream14getTotalLengthEv
	.align 2
	.p2align 4
	.globl	_ZN4juce17MemoryInputStream11isExhaustedEv
	.type	_ZN4juce17MemoryInputStream11isExhaustedEv, @function
_ZN4juce17MemoryInputStream11isExhaustedEv:
.LFB11584:
	.cfi_startproc
	movq	16(%rdi), %rax
	cmpq	%rax, 24(%rdi)
	setnb	%al
	ret
	.cfi_endproc
.LFE11584:
	.size	_ZN4juce17MemoryInputStream11isExhaustedEv, .-_ZN4juce17MemoryInputStream11isExhaustedEv
	.align 2
	.p2align 4
	.globl	_ZN4juce17MemoryInputStream11setPositionEx
	.type	_ZN4juce17MemoryInputStream11setPositionEx, @function
_ZN4juce17MemoryInputStream11setPositionEx:
.LFB11585:
	.cfi_startproc
	xorl	%eax, %eax
	testq	%rsi, %rsi
	js	.L148
	movq	16(%rdi), %rax
	cmpq	%rax, %rsi
	cmovle	%rsi, %rax
.L148:
	movq	%rax, 24(%rdi)
	movl	$1, %eax
	ret
	.cfi_endproc
.LFE11585:
	.size	_ZN4juce17MemoryInputStream11setPositionEx, .-_ZN4juce17MemoryInputStream11setPositionEx
	.align 2
	.p2align 4
	.globl	_ZN4juce17MemoryInputStream11getPositionEv
	.type	_ZN4juce17MemoryInputStream11getPositionEv, @function
_ZN4juce17MemoryInputStream11getPositionEv:
.LFB11586:
	.cfi_startproc
	movq	24(%rdi), %rax
	ret
	.cfi_endproc
.LFE11586:
	.size	_ZN4juce17MemoryInputStream11getPositionEv, .-_ZN4juce17MemoryInputStream11getPositionEv
	.align 2
	.p2align 4
	.globl	_ZN4juce18MemoryOutputStream11setPositionEx
	.type	_ZN4juce18MemoryOutputStream11setPositionEx, @function
_ZN4juce18MemoryOutputStream11setPositionEx:
.LFB11611:
	.cfi_startproc
	movq	56(%rdi), %rax
	xorl	%edx, %edx
	cmpq	%rsi, %rax
	jl	.L151
	cmpq	%rax, %rsi
	movl	$1, %edx
	cmova	%rax, %rsi
	movq	%rsi, 48(%rdi)
.L151:
	movl	%edx, %eax
	ret
	.cfi_endproc
.LFE11611:
	.size	_ZN4juce18MemoryOutputStream11setPositionEx, .-_ZN4juce18MemoryOutputStream11setPositionEx
	.align 2
	.p2align 4
	.globl	_ZN4juce15SubregionStream14getTotalLengthEv
	.type	_ZN4juce15SubregionStream14getTotalLengthEv, @function
_ZN4juce15SubregionStream14getTotalLengthEv:
.LFB11623:
	.cfi_startproc
	pushq	%rbx
	.cfi_def_cfa_offset 16
	.cfi_offset 3, -16
	movq	%rdi, %rbx
	movq	8(%rdi), %rdi
	movq	(%rdi), %rax
	call	*16(%rax)
	movq	32(%rbx), %rdx
	subq	24(%rbx), %rax
	popq	%rbx
	.cfi_def_cfa_offset 8
	cmpq	%rdx, %rax
	movq	%rdx, %rcx
	cmovle	%rax, %rcx
	testq	%rdx, %rdx
	cmovns	%rcx, %rax
	ret
	.cfi_endproc
.LFE11623:
	.size	_ZN4juce15SubregionStream14getTotalLengthEv, .-_ZN4juce15SubregionStream14getTotalLengthEv
	.align 2
	.p2align 4
	.globl	_ZN4juce15SubregionStream11getPositionEv
	.type	_ZN4juce15SubregionStream11getPositionEv, @function
_ZN4juce15SubregionStream11getPositionEv:
.LFB11624:
	.cfi_startproc
	pushq	%rbx
	.cfi_def_cfa_offset 16
	.cfi_offset 3, -16
	movq	%rdi, %rbx
	movq	8(%rdi), %rdi
	movq	(%rdi), %rax
	call	*176(%rax)
	subq	24(%rbx), %rax
	popq	%rbx
	.cfi_def_cfa_offset 8
	ret
	.cfi_endproc
.LFE11624:
	.size	_ZN4juce15SubregionStream11getPositionEv, .-_ZN4juce15SubregionStream11getPositionEv
	.align 2
	.p2align 4
	.globl	_ZN4juce15SubregionStream11setPositionEx
	.type	_ZN4juce15SubregionStream11setPositionEx, @function
_ZN4juce15SubregionStream11setPositionEx:
.LFB11625:
	.cfi_startproc
	movq	%rdi, %rax
	movq	8(%rdi), %rdi
	addq	24(%rax), %rsi
	movl	$0, %eax
	cmovs	%rax, %rsi
	movq	(%rdi), %rax
	jmp	*184(%rax)
	.cfi_endproc
.LFE11625:
	.size	_ZN4juce15SubregionStream11setPositionEx, .-_ZN4juce15SubregionStream11setPositionEx
	.p2align 4
	.type	_ZZN4juce11SystemStats21getMachineIdentifiersENS0_14MachineIdFlagsEENUlRNS_11StringArrayEE1_4_FUNES3_, @function
_ZZN4juce11SystemStats21getMachineIdentifiersENS0_14MachineIdFlagsEENUlRNS_11StringArrayEE1_4_FUNES3_:
.LFB11638:
	.cfi_startproc
	ret
	.cfi_endproc
.LFE11638:
	.size	_ZZN4juce11SystemStats21getMachineIdentifiersENS0_14MachineIdFlagsEENUlRNS_11StringArrayEE1_4_FUNES3_, .-_ZZN4juce11SystemStats21getMachineIdentifiersENS0_14MachineIdFlagsEENUlRNS_11StringArrayEE1_4_FUNES3_
	.align 2
	.p2align 4
	.globl	_ZN4juce12OutputStream9writeBoolEb
	.type	_ZN4juce12OutputStream9writeBoolEb, @function
_ZN4juce12OutputStream9writeBoolEb:
.LFB12136:
	.cfi_startproc
	movq	(%rdi), %rax
	movsbl	%sil, %esi
	jmp	*48(%rax)
	.cfi_endproc
.LFE12136:
	.size	_ZN4juce12OutputStream9writeBoolEb, .-_ZN4juce12OutputStream9writeBoolEb
	.align 2
	.p2align 4
	.globl	_ZN4juce12OutputStream17writeRepeatedByteEhm
	.type	_ZN4juce12OutputStream17writeRepeatedByteEhm, @function
_ZN4juce12OutputStream17writeRepeatedByteEhm:
.LFB12138:
	.cfi_startproc
	testq	%rdx, %rdx
	je	.L167
	pushq	%r13
	.cfi_def_cfa_offset 16
	.cfi_offset 13, -16
	movsbl	%sil, %r13d
	pushq	%r12
	.cfi_def_cfa_offset 24
	.cfi_offset 12, -24
	movq	%rdx, %r12
	pushq	%rbp
	.cfi_def_cfa_offset 32
	.cfi_offset 6, -32
	movq	%rdi, %rbp
	pushq	%rbx
	.cfi_def_cfa_offset 40
	.cfi_offset 3, -40
	xorl	%ebx, %ebx
	subq	$8, %rsp
	.cfi_def_cfa_offset 48
	jmp	.L165
	.p2align 4,,10
	.p2align 3
.L173:
	addq	$1, %rbx
	cmpq	%rbx, %r12
	je	.L162
.L165:
	movq	0(%rbp), %rax
	movl	%r13d, %esi
	movq	%rbp, %rdi
	call	*48(%rax)
	testb	%al, %al
	jne	.L173
.L162:
	addq	$8, %rsp
	.cfi_def_cfa_offset 40
	popq	%rbx
	.cfi_def_cfa_offset 32
	popq	%rbp
	.cfi_def_cfa_offset 24
	popq	%r12
	.cfi_def_cfa_offset 16
	popq	%r13
	.cfi_def_cfa_offset 8
	ret
.L167:
	.cfi_restore 3
	.cfi_restore 6
	.cfi_restore 12
	.cfi_restore 13
	movl	$1, %eax
	ret
	.cfi_endproc
.LFE12138:
	.size	_ZN4juce12OutputStream17writeRepeatedByteEhm, .-_ZN4juce12OutputStream17writeRepeatedByteEhm
	.align 2
	.p2align 4
	.globl	_ZN4juce12OutputStream10writeFloatEf
	.type	_ZN4juce12OutputStream10writeFloatEf, @function
_ZN4juce12OutputStream10writeFloatEf:
.LFB12146:
	.cfi_startproc
	movq	(%rdi), %rax
	movd	%xmm0, %esi
	movq	80(%rax), %rax
	jmp	*%rax
	.cfi_endproc
.LFE12146:
	.size	_ZN4juce12OutputStream10writeFloatEf, .-_ZN4juce12OutputStream10writeFloatEf
	.section	.text._ZN4juce8SpinLockD2Ev,"axG",@progbits,_ZN4juce8SpinLockD5Ev,comdat
	.align 2
	.p2align 4
	.weak	_ZN4juce8SpinLockD2Ev
	.type	_ZN4juce8SpinLockD2Ev, @function
_ZN4juce8SpinLockD2Ev:
.LFB12340:
	.cfi_startproc
	ret
	.cfi_endproc
.LFE12340:
	.size	_ZN4juce8SpinLockD2Ev, .-_ZN4juce8SpinLockD2Ev
	.weak	_ZN4juce8SpinLockD1Ev
	.set	_ZN4juce8SpinLockD1Ev,_ZN4juce8SpinLockD2Ev
	.text
	.align 2
	.p2align 4
	.globl	_ZN4juce8UnitTest10initialiseEv
	.type	_ZN4juce8UnitTest10initialiseEv, @function
_ZN4juce8UnitTest10initialiseEv:
.LFB12751:
	.cfi_startproc
	ret
	.cfi_endproc
.LFE12751:
	.size	_ZN4juce8UnitTest10initialiseEv, .-_ZN4juce8UnitTest10initialiseEv
	.globl	_ZN4juce25AndroidDocumentPermission29takePersistentReadWriteAccessERKNS_3URLE
	.set	_ZN4juce25AndroidDocumentPermission29takePersistentReadWriteAccessERKNS_3URLE,_ZN4juce8UnitTest10initialiseEv
	.globl	_ZN4juce11PropertySet15propertyChangedEv
	.set	_ZN4juce11PropertySet15propertyChangedEv,_ZN4juce8UnitTest10initialiseEv
	.globl	_ZN4juce14UnitTestRunner14resultsUpdatedEv
	.set	_ZN4juce14UnitTestRunner14resultsUpdatedEv,_ZN4juce8UnitTest10initialiseEv
	.globl	_ZN4juce8UnitTest8shutdownEv
	.set	_ZN4juce8UnitTest8shutdownEv,_ZN4juce8UnitTest10initialiseEv
	.section	.text._ZN4juce3var11VariantType12defaultToIntERKNS0_10ValueUnionE,"axG",@progbits,_ZN4juce3var11VariantType12defaultToIntERKNS0_10ValueUnionE,comdat
	.p2align 4
	.weak	_ZN4juce3var11VariantType12defaultToIntERKNS0_10ValueUnionE
	.type	_ZN4juce3var11VariantType12defaultToIntERKNS0_10ValueUnionE, @function
_ZN4juce3var11VariantType12defaultToIntERKNS0_10ValueUnionE:
.LFB12795:
	.cfi_startproc
	xorl	%eax, %eax
	ret
	.cfi_endproc
.LFE12795:
	.size	_ZN4juce3var11VariantType12defaultToIntERKNS0_10ValueUnionE, .-_ZN4juce3var11VariantType12defaultToIntERKNS0_10ValueUnionE
	.section	.text._ZN4juce3var11VariantType14defaultToInt64ERKNS0_10ValueUnionE,"axG",@progbits,_ZN4juce3var11VariantType14defaultToInt64ERKNS0_10ValueUnionE,comdat
	.p2align 4
	.weak	_ZN4juce3var11VariantType14defaultToInt64ERKNS0_10ValueUnionE
	.type	_ZN4juce3var11VariantType14defaultToInt64ERKNS0_10ValueUnionE, @function
_ZN4juce3var11VariantType14defaultToInt64ERKNS0_10ValueUnionE:
.LFB12796:
	.cfi_startproc
	xorl	%eax, %eax
	ret
	.cfi_endproc
.LFE12796:
	.size	_ZN4juce3var11VariantType14defaultToInt64ERKNS0_10ValueUnionE, .-_ZN4juce3var11VariantType14defaultToInt64ERKNS0_10ValueUnionE
	.section	.text._ZN4juce3var11VariantType15defaultToDoubleERKNS0_10ValueUnionE,"axG",@progbits,_ZN4juce3var11VariantType15defaultToDoubleERKNS0_10ValueUnionE,comdat
	.p2align 4
	.weak	_ZN4juce3var11VariantType15defaultToDoubleERKNS0_10ValueUnionE
	.type	_ZN4juce3var11VariantType15defaultToDoubleERKNS0_10ValueUnionE, @function
_ZN4juce3var11VariantType15defaultToDoubleERKNS0_10ValueUnionE:
.LFB12797:
	.cfi_startproc
	pxor	%xmm0, %xmm0
	ret
	.cfi_endproc
.LFE12797:
	.size	_ZN4juce3var11VariantType15defaultToDoubleERKNS0_10ValueUnionE, .-_ZN4juce3var11VariantType15defaultToDoubleERKNS0_10ValueUnionE
	.section	.text._ZN4juce3var11VariantType15defaultToStringERKNS0_10ValueUnionE,"axG",@progbits,_ZN4juce3var11VariantType15defaultToStringERKNS0_10ValueUnionE,comdat
	.p2align 4
	.weak	_ZN4juce3var11VariantType15defaultToStringERKNS0_10ValueUnionE
	.type	_ZN4juce3var11VariantType15defaultToStringERKNS0_10ValueUnionE, @function
_ZN4juce3var11VariantType15defaultToStringERKNS0_10ValueUnionE:
.LFB12798:
	.cfi_startproc
	leaq	16+_ZN4juceL11emptyStringE(%rip), %rdx
	movq	%rdi, %rax
	movq	%rdx, (%rdi)
	ret
	.cfi_endproc
.LFE12798:
	.size	_ZN4juce3var11VariantType15defaultToStringERKNS0_10ValueUnionE, .-_ZN4juce3var11VariantType15defaultToStringERKNS0_10ValueUnionE
	.section	.text._ZN4juce3var11VariantType13defaultToBoolERKNS0_10ValueUnionE,"axG",@progbits,_ZN4juce3var11VariantType13defaultToBoolERKNS0_10ValueUnionE,comdat
	.p2align 4
	.weak	_ZN4juce3var11VariantType13defaultToBoolERKNS0_10ValueUnionE
	.type	_ZN4juce3var11VariantType13defaultToBoolERKNS0_10ValueUnionE, @function
_ZN4juce3var11VariantType13defaultToBoolERKNS0_10ValueUnionE:
.LFB12799:
	.cfi_startproc
	xorl	%eax, %eax
	ret
	.cfi_endproc
.LFE12799:
	.size	_ZN4juce3var11VariantType13defaultToBoolERKNS0_10ValueUnionE, .-_ZN4juce3var11VariantType13defaultToBoolERKNS0_10ValueUnionE
	.section	.text._ZN4juce3var11VariantType15defaultToObjectERKNS0_10ValueUnionE,"axG",@progbits,_ZN4juce3var11VariantType15defaultToObjectERKNS0_10ValueUnionE,comdat
	.p2align 4
	.weak	_ZN4juce3var11VariantType15defaultToObjectERKNS0_10ValueUnionE
	.type	_ZN4juce3var11VariantType15defaultToObjectERKNS0_10ValueUnionE, @function
_ZN4juce3var11VariantType15defaultToObjectERKNS0_10ValueUnionE:
.LFB12800:
	.cfi_startproc
	xorl	%eax, %eax
	ret
	.cfi_endproc
.LFE12800:
	.size	_ZN4juce3var11VariantType15defaultToObjectERKNS0_10ValueUnionE, .-_ZN4juce3var11VariantType15defaultToObjectERKNS0_10ValueUnionE
	.section	.text._ZN4juce3var11VariantType14defaultToArrayERKNS0_10ValueUnionE,"axG",@progbits,_ZN4juce3var11VariantType14defaultToArrayERKNS0_10ValueUnionE,comdat
	.p2align 4
	.weak	_ZN4juce3var11VariantType14defaultToArrayERKNS0_10ValueUnionE
	.type	_ZN4juce3var11VariantType14defaultToArrayERKNS0_10ValueUnionE, @function
_ZN4juce3var11VariantType14defaultToArrayERKNS0_10ValueUnionE:
.LFB12801:
	.cfi_startproc
	xorl	%eax, %eax
	ret
	.cfi_endproc
.LFE12801:
	.size	_ZN4juce3var11VariantType14defaultToArrayERKNS0_10ValueUnionE, .-_ZN4juce3var11VariantType14defaultToArrayERKNS0_10ValueUnionE
	.section	.text._ZN4juce3var11VariantType15defaultToBinaryERKNS0_10ValueUnionE,"axG",@progbits,_ZN4juce3var11VariantType15defaultToBinaryERKNS0_10ValueUnionE,comdat
	.p2align 4
	.weak	_ZN4juce3var11VariantType15defaultToBinaryERKNS0_10ValueUnionE
	.type	_ZN4juce3var11VariantType15defaultToBinaryERKNS0_10ValueUnionE, @function
_ZN4juce3var11VariantType15defaultToBinaryERKNS0_10ValueUnionE:
.LFB12802:
	.cfi_startproc
	xorl	%eax, %eax
	ret
	.cfi_endproc
.LFE12802:
	.size	_ZN4juce3var11VariantType15defaultToBinaryERKNS0_10ValueUnionE, .-_ZN4juce3var11VariantType15defaultToBinaryERKNS0_10ValueUnionE
	.section	.text._ZN4juce3var11VariantType12defaultCloneERKS0_,"axG",@progbits,_ZN4juce3var11VariantType12defaultCloneERKS0_,comdat
	.p2align 4
	.weak	_ZN4juce3var11VariantType12defaultCloneERKS0_
	.type	_ZN4juce3var11VariantType12defaultCloneERKS0_, @function
_ZN4juce3var11VariantType12defaultCloneERKS0_:
.LFB12803:
	.cfi_startproc
	pushq	%rbx
	.cfi_def_cfa_offset 16
	.cfi_offset 3, -16
	movq	(%rsi), %rax
	movq	%rdi, %rbx
	addq	$8, %rsi
	leaq	8(%rdi), %rdi
	movq	%rax, -8(%rdi)
	call	*96(%rax)
	movq	%rbx, %rax
	popq	%rbx
	.cfi_def_cfa_offset 8
	ret
	.cfi_endproc
.LFE12803:
	.size	_ZN4juce3var11VariantType12defaultCloneERKS0_, .-_ZN4juce3var11VariantType12defaultCloneERKS0_
	.section	.text._ZN4juce3var11VariantType14defaultCleanUpERNS0_10ValueUnionE,"axG",@progbits,_ZN4juce3var11VariantType14defaultCleanUpERNS0_10ValueUnionE,comdat
	.p2align 4
	.weak	_ZN4juce3var11VariantType14defaultCleanUpERNS0_10ValueUnionE
	.type	_ZN4juce3var11VariantType14defaultCleanUpERNS0_10ValueUnionE, @function
_ZN4juce3var11VariantType14defaultCleanUpERNS0_10ValueUnionE:
.LFB12804:
	.cfi_startproc
	ret
	.cfi_endproc
.LFE12804:
	.size	_ZN4juce3var11VariantType14defaultCleanUpERNS0_10ValueUnionE, .-_ZN4juce3var11VariantType14defaultCleanUpERNS0_10ValueUnionE
	.section	.text._ZN4juce3var11VariantType17defaultCreateCopyERNS0_10ValueUnionERKS2_,"axG",@progbits,_ZN4juce3var11VariantType17defaultCreateCopyERNS0_10ValueUnionERKS2_,comdat
	.p2align 4
	.weak	_ZN4juce3var11VariantType17defaultCreateCopyERNS0_10ValueUnionERKS2_
	.type	_ZN4juce3var11VariantType17defaultCreateCopyERNS0_10ValueUnionERKS2_, @function
_ZN4juce3var11VariantType17defaultCreateCopyERNS0_10ValueUnionERKS2_:
.LFB12805:
	.cfi_startproc
	movq	(%rsi), %rax
	movq	%rax, (%rdi)
	ret
	.cfi_endproc
.LFE12805:
	.size	_ZN4juce3var11VariantType17defaultCreateCopyERNS0_10ValueUnionERKS2_, .-_ZN4juce3var11VariantType17defaultCreateCopyERNS0_10ValueUnionERKS2_
	.section	.text._ZN4juce3var11VariantType10voidEqualsERKNS0_10ValueUnionES4_RKS1_,"axG",@progbits,_ZN4juce3var11VariantType10voidEqualsERKNS0_10ValueUnionES4_RKS1_,comdat
	.p2align 4
	.weak	_ZN4juce3var11VariantType10voidEqualsERKNS0_10ValueUnionES4_RKS1_
	.type	_ZN4juce3var11VariantType10voidEqualsERKNS0_10ValueUnionES4_RKS1_, @function
_ZN4juce3var11VariantType10voidEqualsERKNS0_10ValueUnionES4_RKS1_:
.LFB12806:
	.cfi_startproc
	movzbl	(%rdx), %eax
	testb	%al, %al
	jne	.L189
	movzbl	1(%rdx), %eax
.L189:
	ret
	.cfi_endproc
.LFE12806:
	.size	_ZN4juce3var11VariantType10voidEqualsERKNS0_10ValueUnionES4_RKS1_, .-_ZN4juce3var11VariantType10voidEqualsERKNS0_10ValueUnionES4_RKS1_
	.section	.text._ZN4juce3var11VariantType17voidWriteToStreamERKNS0_10ValueUnionERNS_12OutputStreamE,"axG",@progbits,_ZN4juce3var11VariantType17voidWriteToStreamERKNS0_10ValueUnionERNS_12OutputStreamE,comdat
	.p2align 4
	.weak	_ZN4juce3var11VariantType17voidWriteToStreamERKNS0_10ValueUnionERNS_12OutputStreamE
	.type	_ZN4juce3var11VariantType17voidWriteToStreamERKNS0_10ValueUnionERNS_12OutputStreamE, @function
_ZN4juce3var11VariantType17voidWriteToStreamERKNS0_10ValueUnionERNS_12OutputStreamE:
.LFB12807:
	.cfi_startproc
	movq	(%rsi), %rax
	movq	%rsi, %rdi
	xorl	%esi, %esi
	movq	152(%rax), %rax
	jmp	*%rax
	.cfi_endproc
.LFE12807:
	.size	_ZN4juce3var11VariantType17voidWriteToStreamERKNS0_10ValueUnionERNS_12OutputStreamE, .-_ZN4juce3var11VariantType17voidWriteToStreamERKNS0_10ValueUnionERNS_12OutputStreamE
	.section	.text._ZN4juce3var11VariantType15undefinedEqualsERKNS0_10ValueUnionES4_RKS1_,"axG",@progbits,_ZN4juce3var11VariantType15undefinedEqualsERKNS0_10ValueUnionES4_RKS1_,comdat
	.p2align 4
	.weak	_ZN4juce3var11VariantType15undefinedEqualsERKNS0_10ValueUnionES4_RKS1_
	.type	_ZN4juce3var11VariantType15undefinedEqualsERKNS0_10ValueUnionES4_RKS1_, @function
_ZN4juce3var11VariantType15undefinedEqualsERKNS0_10ValueUnionES4_RKS1_:
.LFB12812:
	.cfi_startproc
	movzbl	(%rdx), %eax
	testb	%al, %al
	jne	.L192
	movzbl	1(%rdx), %eax
.L192:
	ret
	.cfi_endproc
.LFE12812:
	.size	_ZN4juce3var11VariantType15undefinedEqualsERKNS0_10ValueUnionES4_RKS1_, .-_ZN4juce3var11VariantType15undefinedEqualsERKNS0_10ValueUnionES4_RKS1_
	.section	.text._ZN4juce3var11VariantType22undefinedWriteToStreamERKNS0_10ValueUnionERNS_12OutputStreamE,"axG",@progbits,_ZN4juce3var11VariantType22undefinedWriteToStreamERKNS0_10ValueUnionERNS_12OutputStreamE,comdat
	.p2align 4
	.weak	_ZN4juce3var11VariantType22undefinedWriteToStreamERKNS0_10ValueUnionERNS_12OutputStreamE
	.type	_ZN4juce3var11VariantType22undefinedWriteToStreamERKNS0_10ValueUnionERNS_12OutputStreamE, @function
_ZN4juce3var11VariantType22undefinedWriteToStreamERKNS0_10ValueUnionERNS_12OutputStreamE:
.LFB12813:
	.cfi_startproc
	pushq	%rbx
	.cfi_def_cfa_offset 16
	.cfi_offset 3, -16
	movq	(%rsi), %rax
	movq	%rsi, %rbx
	movl	$1, %esi
	movq	%rbx, %rdi
	call	*152(%rax)
	movq	(%rbx), %rax
	movq	%rbx, %rdi
	movl	$9, %esi
	popq	%rbx
	.cfi_def_cfa_offset 8
	movq	48(%rax), %rax
	jmp	*%rax
	.cfi_endproc
.LFE12813:
	.size	_ZN4juce3var11VariantType22undefinedWriteToStreamERKNS0_10ValueUnionERNS_12OutputStreamE, .-_ZN4juce3var11VariantType22undefinedWriteToStreamERKNS0_10ValueUnionERNS_12OutputStreamE
	.section	.text._ZN4juce3var11VariantType8intToIntERKNS0_10ValueUnionE,"axG",@progbits,_ZN4juce3var11VariantType8intToIntERKNS0_10ValueUnionE,comdat
	.p2align 4
	.weak	_ZN4juce3var11VariantType8intToIntERKNS0_10ValueUnionE
	.type	_ZN4juce3var11VariantType8intToIntERKNS0_10ValueUnionE, @function
_ZN4juce3var11VariantType8intToIntERKNS0_10ValueUnionE:
.LFB12817:
	.cfi_startproc
	movl	(%rdi), %eax
	ret
	.cfi_endproc
.LFE12817:
	.size	_ZN4juce3var11VariantType8intToIntERKNS0_10ValueUnionE, .-_ZN4juce3var11VariantType8intToIntERKNS0_10ValueUnionE
	.section	.text._ZN4juce3var11VariantType10intToInt64ERKNS0_10ValueUnionE,"axG",@progbits,_ZN4juce3var11VariantType10intToInt64ERKNS0_10ValueUnionE,comdat
	.p2align 4
	.weak	_ZN4juce3var11VariantType10intToInt64ERKNS0_10ValueUnionE
	.type	_ZN4juce3var11VariantType10intToInt64ERKNS0_10ValueUnionE, @function
_ZN4juce3var11VariantType10intToInt64ERKNS0_10ValueUnionE:
.LFB12818:
	.cfi_startproc
	movslq	(%rdi), %rax
	ret
	.cfi_endproc
.LFE12818:
	.size	_ZN4juce3var11VariantType10intToInt64ERKNS0_10ValueUnionE, .-_ZN4juce3var11VariantType10intToInt64ERKNS0_10ValueUnionE
	.section	.text._ZN4juce3var11VariantType11intToDoubleERKNS0_10ValueUnionE,"axG",@progbits,_ZN4juce3var11VariantType11intToDoubleERKNS0_10ValueUnionE,comdat
	.p2align 4
	.weak	_ZN4juce3var11VariantType11intToDoubleERKNS0_10ValueUnionE
	.type	_ZN4juce3var11VariantType11intToDoubleERKNS0_10ValueUnionE, @function
_ZN4juce3var11VariantType11intToDoubleERKNS0_10ValueUnionE:
.LFB12819:
	.cfi_startproc
	pxor	%xmm0, %xmm0
	cvtsi2sdl	(%rdi), %xmm0
	ret
	.cfi_endproc
.LFE12819:
	.size	_ZN4juce3var11VariantType11intToDoubleERKNS0_10ValueUnionE, .-_ZN4juce3var11VariantType11intToDoubleERKNS0_10ValueUnionE
	.section	.text._ZN4juce3var11VariantType9intToBoolERKNS0_10ValueUnionE,"axG",@progbits,_ZN4juce3var11VariantType9intToBoolERKNS0_10ValueUnionE,comdat
	.p2align 4
	.weak	_ZN4juce3var11VariantType9intToBoolERKNS0_10ValueUnionE
	.type	_ZN4juce3var11VariantType9intToBoolERKNS0_10ValueUnionE, @function
_ZN4juce3var11VariantType9intToBoolERKNS0_10ValueUnionE:
.LFB12821:
	.cfi_startproc
	movl	(%rdi), %eax
	testl	%eax, %eax
	setne	%al
	ret
	.cfi_endproc
.LFE12821:
	.size	_ZN4juce3var11VariantType9intToBoolERKNS0_10ValueUnionE, .-_ZN4juce3var11VariantType9intToBoolERKNS0_10ValueUnionE
	.section	.text._ZN4juce3var11VariantType16intWriteToStreamERKNS0_10ValueUnionERNS_12OutputStreamE,"axG",@progbits,_ZN4juce3var11VariantType16intWriteToStreamERKNS0_10ValueUnionERNS_12OutputStreamE,comdat
	.p2align 4
	.weak	_ZN4juce3var11VariantType16intWriteToStreamERKNS0_10ValueUnionERNS_12OutputStreamE
	.type	_ZN4juce3var11VariantType16intWriteToStreamERKNS0_10ValueUnionERNS_12OutputStreamE, @function
_ZN4juce3var11VariantType16intWriteToStreamERKNS0_10ValueUnionERNS_12OutputStreamE:
.LFB12823:
	.cfi_startproc
	pushq	%rbp
	.cfi_def_cfa_offset 16
	.cfi_offset 6, -16
	movq	%rdi, %rbp
	pushq	%rbx
	.cfi_def_cfa_offset 24
	.cfi_offset 3, -24
	movq	%rsi, %rbx
	movq	%rbx, %rdi
	subq	$8, %rsp
	.cfi_def_cfa_offset 32
	movq	(%rsi), %rax
	movl	$5, %esi
	call	*152(%rax)
	movq	(%rbx), %rax
	movq	%rbx, %rdi
	movl	$1, %esi
	call	*48(%rax)
	movq	(%rbx), %rax
	movl	0(%rbp), %esi
	movq	%rbx, %rdi
	movq	80(%rax), %rax
	addq	$8, %rsp
	.cfi_def_cfa_offset 24
	popq	%rbx
	.cfi_def_cfa_offset 16
	popq	%rbp
	.cfi_def_cfa_offset 8
	jmp	*%rax
	.cfi_endproc
.LFE12823:
	.size	_ZN4juce3var11VariantType16intWriteToStreamERKNS0_10ValueUnionERNS_12OutputStreamE, .-_ZN4juce3var11VariantType16intWriteToStreamERKNS0_10ValueUnionERNS_12OutputStreamE
	.section	.text._ZN4juce3var11VariantType10int64ToIntERKNS0_10ValueUnionE,"axG",@progbits,_ZN4juce3var11VariantType10int64ToIntERKNS0_10ValueUnionE,comdat
	.p2align 4
	.weak	_ZN4juce3var11VariantType10int64ToIntERKNS0_10ValueUnionE
	.type	_ZN4juce3var11VariantType10int64ToIntERKNS0_10ValueUnionE, @function
_ZN4juce3var11VariantType10int64ToIntERKNS0_10ValueUnionE:
.LFB12827:
	.cfi_startproc
	movl	(%rdi), %eax
	ret
	.cfi_endproc
.LFE12827:
	.size	_ZN4juce3var11VariantType10int64ToIntERKNS0_10ValueUnionE, .-_ZN4juce3var11VariantType10int64ToIntERKNS0_10ValueUnionE
	.section	.text._ZN4juce3var11VariantType12int64ToInt64ERKNS0_10ValueUnionE,"axG",@progbits,_ZN4juce3var11VariantType12int64ToInt64ERKNS0_10ValueUnionE,comdat
	.p2align 4
	.weak	_ZN4juce3var11VariantType12int64ToInt64ERKNS0_10ValueUnionE
	.type	_ZN4juce3var11VariantType12int64ToInt64ERKNS0_10ValueUnionE, @function
_ZN4juce3var11VariantType12int64ToInt64ERKNS0_10ValueUnionE:
.LFB12828:
	.cfi_startproc
	movq	(%rdi), %rax
	ret
	.cfi_endproc
.LFE12828:
	.size	_ZN4juce3var11VariantType12int64ToInt64ERKNS0_10ValueUnionE, .-_ZN4juce3var11VariantType12int64ToInt64ERKNS0_10ValueUnionE
	.section	.text._ZN4juce3var11VariantType13int64ToDoubleERKNS0_10ValueUnionE,"axG",@progbits,_ZN4juce3var11VariantType13int64ToDoubleERKNS0_10ValueUnionE,comdat
	.p2align 4
	.weak	_ZN4juce3var11VariantType13int64ToDoubleERKNS0_10ValueUnionE
	.type	_ZN4juce3var11VariantType13int64ToDoubleERKNS0_10ValueUnionE, @function
_ZN4juce3var11VariantType13int64ToDoubleERKNS0_10ValueUnionE:
.LFB12829:
	.cfi_startproc
	pxor	%xmm0, %xmm0
	cvtsi2sdq	(%rdi), %xmm0
	ret
	.cfi_endproc
.LFE12829:
	.size	_ZN4juce3var11VariantType13int64ToDoubleERKNS0_10ValueUnionE, .-_ZN4juce3var11VariantType13int64ToDoubleERKNS0_10ValueUnionE
	.section	.text._ZN4juce3var11VariantType11int64ToBoolERKNS0_10ValueUnionE,"axG",@progbits,_ZN4juce3var11VariantType11int64ToBoolERKNS0_10ValueUnionE,comdat
	.p2align 4
	.weak	_ZN4juce3var11VariantType11int64ToBoolERKNS0_10ValueUnionE
	.type	_ZN4juce3var11VariantType11int64ToBoolERKNS0_10ValueUnionE, @function
_ZN4juce3var11VariantType11int64ToBoolERKNS0_10ValueUnionE:
.LFB12831:
	.cfi_startproc
	cmpq	$0, (%rdi)
	setne	%al
	ret
	.cfi_endproc
.LFE12831:
	.size	_ZN4juce3var11VariantType11int64ToBoolERKNS0_10ValueUnionE, .-_ZN4juce3var11VariantType11int64ToBoolERKNS0_10ValueUnionE
	.section	.text._ZN4juce3var11VariantType11doubleToIntERKNS0_10ValueUnionE,"axG",@progbits,_ZN4juce3var11VariantType11doubleToIntERKNS0_10ValueUnionE,comdat
	.p2align 4
	.weak	_ZN4juce3var11VariantType11doubleToIntERKNS0_10ValueUnionE
	.type	_ZN4juce3var11VariantType11doubleToIntERKNS0_10ValueUnionE, @function
_ZN4juce3var11VariantType11doubleToIntERKNS0_10ValueUnionE:
.LFB12837:
	.cfi_startproc
	cvttsd2sil	(%rdi), %eax
	ret
	.cfi_endproc
.LFE12837:
	.size	_ZN4juce3var11VariantType11doubleToIntERKNS0_10ValueUnionE, .-_ZN4juce3var11VariantType11doubleToIntERKNS0_10ValueUnionE
	.section	.text._ZN4juce3var11VariantType13doubleToInt64ERKNS0_10ValueUnionE,"axG",@progbits,_ZN4juce3var11VariantType13doubleToInt64ERKNS0_10ValueUnionE,comdat
	.p2align 4
	.weak	_ZN4juce3var11VariantType13doubleToInt64ERKNS0_10ValueUnionE
	.type	_ZN4juce3var11VariantType13doubleToInt64ERKNS0_10ValueUnionE, @function
_ZN4juce3var11VariantType13doubleToInt64ERKNS0_10ValueUnionE:
.LFB12838:
	.cfi_startproc
	cvttsd2siq	(%rdi), %rax
	ret
	.cfi_endproc
.LFE12838:
	.size	_ZN4juce3var11VariantType13doubleToInt64ERKNS0_10ValueUnionE, .-_ZN4juce3var11VariantType13doubleToInt64ERKNS0_10ValueUnionE
	.section	.text._ZN4juce3var11VariantType14doubleToDoubleERKNS0_10ValueUnionE,"axG",@progbits,_ZN4juce3var11VariantType14doubleToDoubleERKNS0_10ValueUnionE,comdat
	.p2align 4
	.weak	_ZN4juce3var11VariantType14doubleToDoubleERKNS0_10ValueUnionE
	.type	_ZN4juce3var11VariantType14doubleToDoubleERKNS0_10ValueUnionE, @function
_ZN4juce3var11VariantType14doubleToDoubleERKNS0_10ValueUnionE:
.LFB12839:
	.cfi_startproc
	movsd	(%rdi), %xmm0
	ret
	.cfi_endproc
.LFE12839:
	.size	_ZN4juce3var11VariantType14doubleToDoubleERKNS0_10ValueUnionE, .-_ZN4juce3var11VariantType14doubleToDoubleERKNS0_10ValueUnionE
	.section	.text._ZN4juce3var11VariantType12doubleToBoolERKNS0_10ValueUnionE,"axG",@progbits,_ZN4juce3var11VariantType12doubleToBoolERKNS0_10ValueUnionE,comdat
	.p2align 4
	.weak	_ZN4juce3var11VariantType12doubleToBoolERKNS0_10ValueUnionE
	.type	_ZN4juce3var11VariantType12doubleToBoolERKNS0_10ValueUnionE, @function
_ZN4juce3var11VariantType12doubleToBoolERKNS0_10ValueUnionE:
.LFB12841:
	.cfi_startproc
	pxor	%xmm0, %xmm0
	ucomisd	(%rdi), %xmm0
	movl	$1, %edx
	setp	%al
	cmovne	%edx, %eax
	ret
	.cfi_endproc
.LFE12841:
	.size	_ZN4juce3var11VariantType12doubleToBoolERKNS0_10ValueUnionE, .-_ZN4juce3var11VariantType12doubleToBoolERKNS0_10ValueUnionE
	.section	.text._ZN4juce3var11VariantType12doubleEqualsERKNS0_10ValueUnionES4_RKS1_,"axG",@progbits,_ZN4juce3var11VariantType12doubleEqualsERKNS0_10ValueUnionES4_RKS1_,comdat
	.p2align 4
	.weak	_ZN4juce3var11VariantType12doubleEqualsERKNS0_10ValueUnionES4_RKS1_
	.type	_ZN4juce3var11VariantType12doubleEqualsERKNS0_10ValueUnionES4_RKS1_, @function
_ZN4juce3var11VariantType12doubleEqualsERKNS0_10ValueUnionES4_RKS1_:
.LFB12842:
	.cfi_startproc
	.cfi_personality 0x9b,DW.ref.__gxx_personality_v0
	.cfi_lsda 0x1b,.LLSDA12842
	pushq	%rbx
	.cfi_def_cfa_offset 16
	.cfi_offset 3, -16
	movq	%rdi, %rbx
	movq	%rsi, %rdi
	call	*32(%rdx)
	movsd	.LC2(%rip), %xmm1
	subsd	(%rbx), %xmm0
	andpd	.LC1(%rip), %xmm0
	popq	%rbx
	.cfi_def_cfa_offset 8
	comisd	%xmm0, %xmm1
	seta	%al
	ret
	.cfi_endproc
.LFE12842:
	.section	.gcc_except_table._ZN4juce3var11VariantType12doubleEqualsERKNS0_10ValueUnionES4_RKS1_,"aG",@progbits,_ZN4juce3var11VariantType12doubleEqualsERKNS0_10ValueUnionES4_RKS1_,comdat
.LLSDA12842:
	.byte	0xff
	.byte	0xff
	.byte	0x1
	.uleb128 .LLSDACSE12842-.LLSDACSB12842
.LLSDACSB12842:
.LLSDACSE12842:
	.section	.text._ZN4juce3var11VariantType12doubleEqualsERKNS0_10ValueUnionES4_RKS1_,"axG",@progbits,_ZN4juce3var11VariantType12doubleEqualsERKNS0_10ValueUnionES4_RKS1_,comdat
	.size	_ZN4juce3var11VariantType12doubleEqualsERKNS0_10ValueUnionES4_RKS1_, .-_ZN4juce3var11VariantType12doubleEqualsERKNS0_10ValueUnionES4_RKS1_
	.section	.text._ZN4juce3var11VariantType9boolToIntERKNS0_10ValueUnionE,"axG",@progbits,_ZN4juce3var11VariantType9boolToIntERKNS0_10ValueUnionE,comdat
	.p2align 4
	.weak	_ZN4juce3var11VariantType9boolToIntERKNS0_10ValueUnionE
	.type	_ZN4juce3var11VariantType9boolToIntERKNS0_10ValueUnionE, @function
_ZN4juce3var11VariantType9boolToIntERKNS0_10ValueUnionE:
.LFB12847:
	.cfi_startproc
	movzbl	(%rdi), %eax
	ret
	.cfi_endproc
.LFE12847:
	.size	_ZN4juce3var11VariantType9boolToIntERKNS0_10ValueUnionE, .-_ZN4juce3var11VariantType9boolToIntERKNS0_10ValueUnionE
	.section	.text._ZN4juce3var11VariantType11boolToInt64ERKNS0_10ValueUnionE,"axG",@progbits,_ZN4juce3var11VariantType11boolToInt64ERKNS0_10ValueUnionE,comdat
	.p2align 4
	.weak	_ZN4juce3var11VariantType11boolToInt64ERKNS0_10ValueUnionE
	.type	_ZN4juce3var11VariantType11boolToInt64ERKNS0_10ValueUnionE, @function
_ZN4juce3var11VariantType11boolToInt64ERKNS0_10ValueUnionE:
.LFB12848:
	.cfi_startproc
	movzbl	(%rdi), %eax
	ret
	.cfi_endproc
.LFE12848:
	.size	_ZN4juce3var11VariantType11boolToInt64ERKNS0_10ValueUnionE, .-_ZN4juce3var11VariantType11boolToInt64ERKNS0_10ValueUnionE
	.section	.text._ZN4juce3var11VariantType12boolToDoubleERKNS0_10ValueUnionE,"axG",@progbits,_ZN4juce3var11VariantType12boolToDoubleERKNS0_10ValueUnionE,comdat
	.p2align 4
	.weak	_ZN4juce3var11VariantType12boolToDoubleERKNS0_10ValueUnionE
	.type	_ZN4juce3var11VariantType12boolToDoubleERKNS0_10ValueUnionE, @function
_ZN4juce3var11VariantType12boolToDoubleERKNS0_10ValueUnionE:
.LFB12849:
	.cfi_startproc
	pxor	%xmm0, %xmm0
	cmpb	$0, (%rdi)
	je	.L214
	movsd	.LC3(%rip), %xmm0
.L214:
	ret
	.cfi_endproc
.LFE12849:
	.size	_ZN4juce3var11VariantType12boolToDoubleERKNS0_10ValueUnionE, .-_ZN4juce3var11VariantType12boolToDoubleERKNS0_10ValueUnionE
	.section	.text._ZN4juce3var11VariantType10boolToBoolERKNS0_10ValueUnionE,"axG",@progbits,_ZN4juce3var11VariantType10boolToBoolERKNS0_10ValueUnionE,comdat
	.p2align 4
	.weak	_ZN4juce3var11VariantType10boolToBoolERKNS0_10ValueUnionE
	.type	_ZN4juce3var11VariantType10boolToBoolERKNS0_10ValueUnionE, @function
_ZN4juce3var11VariantType10boolToBoolERKNS0_10ValueUnionE:
.LFB12851:
	.cfi_startproc
	movzbl	(%rdi), %eax
	ret
	.cfi_endproc
.LFE12851:
	.size	_ZN4juce3var11VariantType10boolToBoolERKNS0_10ValueUnionE, .-_ZN4juce3var11VariantType10boolToBoolERKNS0_10ValueUnionE
	.section	.text._ZN4juce3var11VariantType10boolEqualsERKNS0_10ValueUnionES4_RKS1_,"axG",@progbits,_ZN4juce3var11VariantType10boolEqualsERKNS0_10ValueUnionES4_RKS1_,comdat
	.p2align 4
	.weak	_ZN4juce3var11VariantType10boolEqualsERKNS0_10ValueUnionES4_RKS1_
	.type	_ZN4juce3var11VariantType10boolEqualsERKNS0_10ValueUnionES4_RKS1_, @function
_ZN4juce3var11VariantType10boolEqualsERKNS0_10ValueUnionES4_RKS1_:
.LFB12852:
	.cfi_startproc
	.cfi_personality 0x9b,DW.ref.__gxx_personality_v0
	.cfi_lsda 0x1b,.LLSDA12852
	pushq	%rbx
	.cfi_def_cfa_offset 16
	.cfi_offset 3, -16
	movq	%rdi, %rbx
	movq	%rsi, %rdi
	call	*48(%rdx)
	cmpb	%al, (%rbx)
	popq	%rbx
	.cfi_def_cfa_offset 8
	sete	%al
	ret
	.cfi_endproc
.LFE12852:
	.section	.gcc_except_table._ZN4juce3var11VariantType10boolEqualsERKNS0_10ValueUnionES4_RKS1_,"aG",@progbits,_ZN4juce3var11VariantType10boolEqualsERKNS0_10ValueUnionES4_RKS1_,comdat
.LLSDA12852:
	.byte	0xff
	.byte	0xff
	.byte	0x1
	.uleb128 .LLSDACSE12852-.LLSDACSB12852
.LLSDACSB12852:
.LLSDACSE12852:
	.section	.text._ZN4juce3var11VariantType10boolEqualsERKNS0_10ValueUnionES4_RKS1_,"axG",@progbits,_ZN4juce3var11VariantType10boolEqualsERKNS0_10ValueUnionES4_RKS1_,comdat
	.size	_ZN4juce3var11VariantType10boolEqualsERKNS0_10ValueUnionES4_RKS1_, .-_ZN4juce3var11VariantType10boolEqualsERKNS0_10ValueUnionES4_RKS1_
	.section	.text._ZN4juce3var11VariantType17boolWriteToStreamERKNS0_10ValueUnionERNS_12OutputStreamE,"axG",@progbits,_ZN4juce3var11VariantType17boolWriteToStreamERKNS0_10ValueUnionERNS_12OutputStreamE,comdat
	.p2align 4
	.weak	_ZN4juce3var11VariantType17boolWriteToStreamERKNS0_10ValueUnionERNS_12OutputStreamE
	.type	_ZN4juce3var11VariantType17boolWriteToStreamERKNS0_10ValueUnionERNS_12OutputStreamE, @function
_ZN4juce3var11VariantType17boolWriteToStreamERKNS0_10ValueUnionERNS_12OutputStreamE:
.LFB12853:
	.cfi_startproc
	pushq	%rbp
	.cfi_def_cfa_offset 16
	.cfi_offset 6, -16
	movq	%rdi, %rbp
	pushq	%rbx
	.cfi_def_cfa_offset 24
	.cfi_offset 3, -24
	movq	%rsi, %rbx
	movq	%rbx, %rdi
	subq	$8, %rsp
	.cfi_def_cfa_offset 32
	movq	(%rsi), %rax
	movl	$1, %esi
	call	*152(%rax)
	movq	(%rbx), %rax
	movl	$3, %esi
	subb	0(%rbp), %sil
	movq	%rbx, %rdi
	movsbl	%sil, %esi
	movq	48(%rax), %rax
	addq	$8, %rsp
	.cfi_def_cfa_offset 24
	popq	%rbx
	.cfi_def_cfa_offset 16
	popq	%rbp
	.cfi_def_cfa_offset 8
	jmp	*%rax
	.cfi_endproc
.LFE12853:
	.size	_ZN4juce3var11VariantType17boolWriteToStreamERKNS0_10ValueUnionERNS_12OutputStreamE, .-_ZN4juce3var11VariantType17boolWriteToStreamERKNS0_10ValueUnionERNS_12OutputStreamE
	.section	.text._ZN4juce3var11VariantType12objectToBoolERKNS0_10ValueUnionE,"axG",@progbits,_ZN4juce3var11VariantType12objectToBoolERKNS0_10ValueUnionE,comdat
	.p2align 4
	.weak	_ZN4juce3var11VariantType12objectToBoolERKNS0_10ValueUnionE
	.type	_ZN4juce3var11VariantType12objectToBoolERKNS0_10ValueUnionE, @function
_ZN4juce3var11VariantType12objectToBoolERKNS0_10ValueUnionE:
.LFB12872:
	.cfi_startproc
	cmpq	$0, (%rdi)
	setne	%al
	ret
	.cfi_endproc
.LFE12872:
	.size	_ZN4juce3var11VariantType12objectToBoolERKNS0_10ValueUnionE, .-_ZN4juce3var11VariantType12objectToBoolERKNS0_10ValueUnionE
	.section	.text._ZN4juce3var11VariantType14objectToObjectERKNS0_10ValueUnionE,"axG",@progbits,_ZN4juce3var11VariantType14objectToObjectERKNS0_10ValueUnionE,comdat
	.p2align 4
	.weak	_ZN4juce3var11VariantType14objectToObjectERKNS0_10ValueUnionE
	.type	_ZN4juce3var11VariantType14objectToObjectERKNS0_10ValueUnionE, @function
_ZN4juce3var11VariantType14objectToObjectERKNS0_10ValueUnionE:
.LFB12873:
	.cfi_startproc
	movq	(%rdi), %rax
	ret
	.cfi_endproc
.LFE12873:
	.size	_ZN4juce3var11VariantType14objectToObjectERKNS0_10ValueUnionE, .-_ZN4juce3var11VariantType14objectToObjectERKNS0_10ValueUnionE
	.section	.text._ZN4juce3var11VariantType12objectEqualsERKNS0_10ValueUnionES4_RKS1_,"axG",@progbits,_ZN4juce3var11VariantType12objectEqualsERKNS0_10ValueUnionES4_RKS1_,comdat
	.p2align 4
	.weak	_ZN4juce3var11VariantType12objectEqualsERKNS0_10ValueUnionES4_RKS1_
	.type	_ZN4juce3var11VariantType12objectEqualsERKNS0_10ValueUnionES4_RKS1_, @function
_ZN4juce3var11VariantType12objectEqualsERKNS0_10ValueUnionES4_RKS1_:
.LFB12877:
	.cfi_startproc
	.cfi_personality 0x9b,DW.ref.__gxx_personality_v0
	.cfi_lsda 0x1b,.LLSDA12877
	pushq	%rbx
	.cfi_def_cfa_offset 16
	.cfi_offset 3, -16
	movq	%rdi, %rbx
	movq	%rsi, %rdi
	call	*56(%rdx)
	cmpq	%rax, (%rbx)
	popq	%rbx
	.cfi_def_cfa_offset 8
	sete	%al
	ret
	.cfi_endproc
.LFE12877:
	.section	.gcc_except_table._ZN4juce3var11VariantType12objectEqualsERKNS0_10ValueUnionES4_RKS1_,"aG",@progbits,_ZN4juce3var11VariantType12objectEqualsERKNS0_10ValueUnionES4_RKS1_,comdat
.LLSDA12877:
	.byte	0xff
	.byte	0xff
	.byte	0x1
	.uleb128 .LLSDACSE12877-.LLSDACSB12877
.LLSDACSB12877:
.LLSDACSE12877:
	.section	.text._ZN4juce3var11VariantType12objectEqualsERKNS0_10ValueUnionES4_RKS1_,"axG",@progbits,_ZN4juce3var11VariantType12objectEqualsERKNS0_10ValueUnionES4_RKS1_,comdat
	.size	_ZN4juce3var11VariantType12objectEqualsERKNS0_10ValueUnionES4_RKS1_, .-_ZN4juce3var11VariantType12objectEqualsERKNS0_10ValueUnionES4_RKS1_
	.section	.text._ZN4juce3var11VariantType19objectWriteToStreamERKNS0_10ValueUnionERNS_12OutputStreamE,"axG",@progbits,_ZN4juce3var11VariantType19objectWriteToStreamERKNS0_10ValueUnionERNS_12OutputStreamE,comdat
	.p2align 4
	.weak	_ZN4juce3var11VariantType19objectWriteToStreamERKNS0_10ValueUnionERNS_12OutputStreamE
	.type	_ZN4juce3var11VariantType19objectWriteToStreamERKNS0_10ValueUnionERNS_12OutputStreamE, @function
_ZN4juce3var11VariantType19objectWriteToStreamERKNS0_10ValueUnionERNS_12OutputStreamE:
.LFB12878:
	.cfi_startproc
	movq	(%rsi), %rax
	movq	%rsi, %rdi
	xorl	%esi, %esi
	movq	152(%rax), %rax
	jmp	*%rax
	.cfi_endproc
.LFE12878:
	.size	_ZN4juce3var11VariantType19objectWriteToStreamERKNS0_10ValueUnionERNS_12OutputStreamE, .-_ZN4juce3var11VariantType19objectWriteToStreamERKNS0_10ValueUnionERNS_12OutputStreamE
	.section	.text._ZN4juce3var11VariantType13arrayToObjectERKNS0_10ValueUnionE,"axG",@progbits,_ZN4juce3var11VariantType13arrayToObjectERKNS0_10ValueUnionE,comdat
	.p2align 4
	.weak	_ZN4juce3var11VariantType13arrayToObjectERKNS0_10ValueUnionE
	.type	_ZN4juce3var11VariantType13arrayToObjectERKNS0_10ValueUnionE, @function
_ZN4juce3var11VariantType13arrayToObjectERKNS0_10ValueUnionE:
.LFB12883:
	.cfi_startproc
	xorl	%eax, %eax
	ret
	.cfi_endproc
.LFE12883:
	.size	_ZN4juce3var11VariantType13arrayToObjectERKNS0_10ValueUnionE, .-_ZN4juce3var11VariantType13arrayToObjectERKNS0_10ValueUnionE
	.section	.text._ZN4juce3var11VariantType14binaryToBinaryERKNS0_10ValueUnionE,"axG",@progbits,_ZN4juce3var11VariantType14binaryToBinaryERKNS0_10ValueUnionE,comdat
	.p2align 4
	.weak	_ZN4juce3var11VariantType14binaryToBinaryERKNS0_10ValueUnionE
	.type	_ZN4juce3var11VariantType14binaryToBinaryERKNS0_10ValueUnionE, @function
_ZN4juce3var11VariantType14binaryToBinaryERKNS0_10ValueUnionE:
.LFB12912:
	.cfi_startproc
	movq	(%rdi), %rax
	ret
	.cfi_endproc
.LFE12912:
	.size	_ZN4juce3var11VariantType14binaryToBinaryERKNS0_10ValueUnionE, .-_ZN4juce3var11VariantType14binaryToBinaryERKNS0_10ValueUnionE
	.section	.text._ZN4juce3var11VariantType12methodToBoolERKNS0_10ValueUnionE,"axG",@progbits,_ZN4juce3var11VariantType12methodToBoolERKNS0_10ValueUnionE,comdat
	.p2align 4
	.weak	_ZN4juce3var11VariantType12methodToBoolERKNS0_10ValueUnionE
	.type	_ZN4juce3var11VariantType12methodToBoolERKNS0_10ValueUnionE, @function
_ZN4juce3var11VariantType12methodToBoolERKNS0_10ValueUnionE:
.LFB12924:
	.cfi_startproc
	cmpq	$0, (%rdi)
	setne	%al
	ret
	.cfi_endproc
.LFE12924:
	.size	_ZN4juce3var11VariantType12methodToBoolERKNS0_10ValueUnionE, .-_ZN4juce3var11VariantType12methodToBoolERKNS0_10ValueUnionE
	.section	.text._ZN4juce3var11VariantType12methodEqualsERKNS0_10ValueUnionES4_RKS1_,"axG",@progbits,_ZN4juce3var11VariantType12methodEqualsERKNS0_10ValueUnionES4_RKS1_,comdat
	.p2align 4
	.weak	_ZN4juce3var11VariantType12methodEqualsERKNS0_10ValueUnionES4_RKS1_
	.type	_ZN4juce3var11VariantType12methodEqualsERKNS0_10ValueUnionES4_RKS1_, @function
_ZN4juce3var11VariantType12methodEqualsERKNS0_10ValueUnionES4_RKS1_:
.LFB12925:
	.cfi_startproc
	movzbl	10(%rdx), %eax
	testb	%al, %al
	je	.L230
	movq	(%rdi), %rax
	cmpq	%rax, (%rsi)
	sete	%al
.L230:
	ret
	.cfi_endproc
.LFE12925:
	.size	_ZN4juce3var11VariantType12methodEqualsERKNS0_10ValueUnionES4_RKS1_, .-_ZN4juce3var11VariantType12methodEqualsERKNS0_10ValueUnionES4_RKS1_
	.section	.text._ZN4juce3var11VariantType19methodWriteToStreamERKNS0_10ValueUnionERNS_12OutputStreamE,"axG",@progbits,_ZN4juce3var11VariantType19methodWriteToStreamERKNS0_10ValueUnionERNS_12OutputStreamE,comdat
	.p2align 4
	.weak	_ZN4juce3var11VariantType19methodWriteToStreamERKNS0_10ValueUnionERNS_12OutputStreamE
	.type	_ZN4juce3var11VariantType19methodWriteToStreamERKNS0_10ValueUnionERNS_12OutputStreamE, @function
_ZN4juce3var11VariantType19methodWriteToStreamERKNS0_10ValueUnionERNS_12OutputStreamE:
.LFB12926:
	.cfi_startproc
	movq	(%rsi), %rax
	movq	%rsi, %rdi
	xorl	%esi, %esi
	movq	152(%rax), %rax
	jmp	*%rax
	.cfi_endproc
.LFE12926:
	.size	_ZN4juce3var11VariantType19methodWriteToStreamERKNS0_10ValueUnionERNS_12OutputStreamE, .-_ZN4juce3var11VariantType19methodWriteToStreamERKNS0_10ValueUnionERNS_12OutputStreamE
	.text
	.align 2
	.p2align 4
	.globl	_ZN4juce3varD2Ev
	.type	_ZN4juce3varD2Ev, @function
_ZN4juce3varD2Ev:
.LFB12937:
	.cfi_startproc
	.cfi_personality 0x9b,DW.ref.__gxx_personality_v0
	.cfi_lsda 0x1b,.LLSDA12937
	subq	$8, %rsp
	.cfi_def_cfa_offset 16
	movq	(%rdi), %rax
	addq	$8, %rdi
	call	*88(%rax)
	addq	$8, %rsp
	.cfi_def_cfa_offset 8
	ret
	.cfi_endproc
.LFE12937:
	.section	.gcc_except_table,"a",@progbits
.LLSDA12937:
	.byte	0xff
	.byte	0xff
	.byte	0x1
	.uleb128 .LLSDACSE12937-.LLSDACSB12937
.LLSDACSB12937:
.LLSDACSE12937:
	.text
	.size	_ZN4juce3varD2Ev, .-_ZN4juce3varD2Ev
	.globl	_ZN4juce3varD1Ev
	.set	_ZN4juce3varD1Ev,_ZN4juce3varD2Ev
	.p2align 4
	.type	_ZN4juce13zlibNamespaceL12crc32_littleEmPKhj, @function
_ZN4juce13zlibNamespaceL12crc32_littleEmPKhj:
.LFB13361:
	.cfi_startproc
	movq	%rdi, %rax
	movl	%edx, %r8d
	notl	%eax
	testl	%edx, %edx
	je	.L268
	pushq	%rbx
	.cfi_def_cfa_offset 16
	.cfi_offset 3, -16
	movq	%rsi, %rdi
	leaq	_ZN4juce13zlibNamespaceL9crc_tableE(%rip), %rdx
	jmp	.L239
	.p2align 5
	.p2align 4,,10
	.p2align 3
.L242:
	movzbl	(%rdi), %ecx
	addq	$1, %rdi
	xorl	%eax, %ecx
	shrl	$8, %eax
	movzbl	%cl, %ecx
	xorl	(%rdx,%rcx,8), %eax
	subl	$1, %r8d
	je	.L249
.L239:
	testb	$3, %dil
	jne	.L242
	cmpl	$31, %r8d
	jbe	.L269
	movl	%r8d, %r9d
	movq	%rdi, %rsi
	shrl	$5, %r9d
	leal	-1(%r9), %r10d
	salq	$5, %r9
	addq	%rdi, %r9
	.p2align 4
	.p2align 3
.L246:
	xorl	(%rsi), %eax
	movl	%eax, %r11d
	movl	%eax, %ecx
	movzbl	%al, %ebx
	movzbl	%ah, %eax
	shrl	$16, %r11d
	shrl	$24, %ecx
	movzbl	%r11b, %r11d
	movq	(%rdx,%rcx,8), %rcx
	xorl	6144(%rdx,%rbx,8), %ecx
	xorl	4(%rsi), %ecx
	xorl	4096(%rdx,%rax,8), %ecx
	xorl	2048(%rdx,%r11,8), %ecx
	movl	%ecx, %r11d
	movl	%ecx, %eax
	movzbl	%cl, %ebx
	movzbl	%ch, %ecx
	shrl	$16, %r11d
	shrl	$24, %eax
	movzbl	%r11b, %r11d
	movq	(%rdx,%rax,8), %rax
	xorl	6144(%rdx,%rbx,8), %eax
	xorl	8(%rsi), %eax
	xorl	4096(%rdx,%rcx,8), %eax
	xorl	2048(%rdx,%r11,8), %eax
	movl	%eax, %r11d
	movl	%eax, %ecx
	movzbl	%al, %ebx
	movzbl	%ah, %eax
	shrl	$16, %r11d
	shrl	$24, %ecx
	movzbl	%r11b, %r11d
	movq	(%rdx,%rcx,8), %rcx
	xorl	6144(%rdx,%rbx,8), %ecx
	xorl	12(%rsi), %ecx
	xorl	4096(%rdx,%rax,8), %ecx
	xorl	2048(%rdx,%r11,8), %ecx
	movl	%ecx, %r11d
	movl	%ecx, %eax
	movzbl	%cl, %ebx
	movzbl	%ch, %ecx
	shrl	$16, %r11d
	shrl	$24, %eax
	movzbl	%r11b, %r11d
	movq	(%rdx,%rax,8), %rax
	xorl	6144(%rdx,%rbx,8), %eax
	xorl	16(%rsi), %eax
	xorl	4096(%rdx,%rcx,8), %eax
	xorl	2048(%rdx,%r11,8), %eax
	movl	%eax, %r11d
	movl	%eax, %ecx
	movzbl	%al, %ebx
	movzbl	%ah, %eax
	shrl	$16, %r11d
	shrl	$24, %ecx
	movzbl	%r11b, %r11d
	movq	(%rdx,%rcx,8), %rcx
	xorl	6144(%rdx,%rbx,8), %ecx
	xorl	20(%rsi), %ecx
	xorl	4096(%rdx,%rax,8), %ecx
	xorl	2048(%rdx,%r11,8), %ecx
	movl	%ecx, %r11d
	movl	%ecx, %eax
	movzbl	%cl, %ebx
	movzbl	%ch, %ecx
	shrl	$16, %r11d
	shrl	$24, %eax
	addq	$32, %rsi
	movzbl	%r11b, %r11d
	movq	(%rdx,%rax,8), %rax
	xorl	6144(%rdx,%rbx,8), %eax
	xorl	-8(%rsi), %eax
	xorl	4096(%rdx,%rcx,8), %eax
	xorl	2048(%rdx,%r11,8), %eax
	movl	%eax, %r11d
	movl	%eax, %ecx
	movzbl	%al, %ebx
	movzbl	%ah, %eax
	shrl	$16, %r11d
	shrl	$24, %ecx
	movzbl	%r11b, %r11d
	movq	(%rdx,%rcx,8), %rcx
	xorl	6144(%rdx,%rbx,8), %ecx
	xorl	-4(%rsi), %ecx
	xorl	4096(%rdx,%rax,8), %ecx
	xorl	2048(%rdx,%r11,8), %ecx
	movl	%ecx, %r11d
	movl	%ecx, %eax
	movzbl	%cl, %ebx
	movzbl	%ch, %ecx
	shrl	$16, %r11d
	shrl	$24, %eax
	movzbl	%r11b, %r11d
	movq	(%rdx,%rax,8), %rax
	xorl	6144(%rdx,%rbx,8), %eax
	xorl	4096(%rdx,%rcx,8), %eax
	xorl	2048(%rdx,%r11,8), %eax
	cmpq	%r9, %rsi
	jne	.L246
	salq	$5, %r10
	andl	$31, %r8d
	leaq	32(%rdi,%r10), %rdi
	cmpl	$3, %r8d
	jbe	.L249
.L244:
	xorl	(%rdi), %eax
	movl	%eax, %esi
	movl	%eax, %r9d
	movzbl	%al, %ecx
	movzbl	%ah, %eax
	shrl	$16, %esi
	shrl	$24, %r9d
	movq	6144(%rdx,%rcx,8), %rcx
	movzbl	%sil, %esi
	xorl	(%rdx,%r9,8), %ecx
	xorl	4096(%rdx,%rax,8), %ecx
	movl	2048(%rdx,%rsi,8), %eax
	xorl	%ecx, %eax
	leal	-4(%r8), %ecx
	cmpl	$3, %ecx
	jbe	.L248
	xorl	4(%rdi), %eax
	movl	%eax, %esi
	movl	%eax, %r9d
	movzbl	%al, %ecx
	movzbl	%ah, %eax
	shrl	$16, %esi
	shrl	$24, %r9d
	movq	6144(%rdx,%rcx,8), %rcx
	movzbl	%sil, %esi
	xorl	(%rdx,%r9,8), %ecx
	xorl	4096(%rdx,%rax,8), %ecx
	movl	2048(%rdx,%rsi,8), %eax
	xorl	%ecx, %eax
	leal	-8(%r8), %ecx
	cmpl	$3, %ecx
	jbe	.L248
	xorl	8(%rdi), %eax
	movl	%eax, %esi
	movl	%eax, %r9d
	movzbl	%al, %ecx
	movzbl	%ah, %eax
	shrl	$16, %esi
	shrl	$24, %r9d
	movq	6144(%rdx,%rcx,8), %rcx
	movzbl	%sil, %esi
	xorl	(%rdx,%r9,8), %ecx
	xorl	4096(%rdx,%rax,8), %ecx
	movl	2048(%rdx,%rsi,8), %eax
	xorl	%ecx, %eax
	leal	-12(%r8), %ecx
	cmpl	$3, %ecx
	jbe	.L248
	xorl	12(%rdi), %eax
	movl	%eax, %esi
	movl	%eax, %r9d
	movzbl	%al, %ecx
	movzbl	%ah, %eax
	shrl	$16, %esi
	shrl	$24, %r9d
	movq	6144(%rdx,%rcx,8), %rcx
	movzbl	%sil, %esi
	xorl	(%rdx,%r9,8), %ecx
	xorl	4096(%rdx,%rax,8), %ecx
	movl	2048(%rdx,%rsi,8), %eax
	xorl	%ecx, %eax
	leal	-16(%r8), %ecx
	cmpl	$3, %ecx
	jbe	.L248
	xorl	16(%rdi), %eax
	movl	%eax, %esi
	movl	%eax, %r9d
	movzbl	%al, %ecx
	movzbl	%ah, %eax
	shrl	$16, %esi
	shrl	$24, %r9d
	movq	6144(%rdx,%rcx,8), %rcx
	movzbl	%sil, %esi
	xorl	(%rdx,%r9,8), %ecx
	xorl	4096(%rdx,%rax,8), %ecx
	movl	2048(%rdx,%rsi,8), %eax
	xorl	%ecx, %eax
	leal	-20(%r8), %ecx
	cmpl	$3, %ecx
	jbe	.L248
	xorl	20(%rdi), %eax
	movl	%eax, %esi
	movl	%eax, %r9d
	movzbl	%al, %ecx
	movzbl	%ah, %eax
	shrl	$16, %esi
	shrl	$24, %r9d
	movq	6144(%rdx,%rcx,8), %rcx
	movzbl	%sil, %esi
	xorl	(%rdx,%r9,8), %ecx
	xorl	4096(%rdx,%rax,8), %ecx
	movl	2048(%rdx,%rsi,8), %eax
	xorl	%ecx, %eax
	leal	-24(%r8), %ecx
	cmpl	$3, %ecx
	jbe	.L248
	xorl	24(%rdi), %eax
	movl	%eax, %esi
	movl	%eax, %ecx
	movzbl	%al, %r9d
	movzbl	%ah, %eax
	shrl	$16, %esi
	shrl	$24, %ecx
	movzbl	%sil, %esi
	movq	(%rdx,%rcx,8), %rcx
	xorl	6144(%rdx,%r9,8), %ecx
	xorl	4096(%rdx,%rax,8), %ecx
	movl	2048(%rdx,%rsi,8), %eax
	xorl	%ecx, %eax
.L248:
	movl	%r8d, %ecx
	shrl	$2, %r8d
	leal	-1(%r8), %esi
	andl	$3, %ecx
	leaq	4(%rdi,%rsi,4), %rdi
.L247:
	testl	%ecx, %ecx
	je	.L240
.L245:
	movzbl	(%rdi), %esi
	xorl	%eax, %esi
	shrl	$8, %eax
	movzbl	%sil, %esi
	xorl	(%rdx,%rsi,8), %eax
	cmpl	$1, %ecx
	je	.L240
	movzbl	1(%rdi), %esi
	xorl	%eax, %esi
	shrl	$8, %eax
	movzbl	%sil, %esi
	xorl	(%rdx,%rsi,8), %eax
	cmpl	$2, %ecx
	je	.L240
	movzbl	2(%rdi), %ecx
	xorl	%eax, %ecx
	shrl	$8, %eax
	movzbl	%cl, %ecx
	xorl	(%rdx,%rcx,8), %eax
.L240:
	notl	%eax
	popq	%rbx
	.cfi_remember_state
	.cfi_def_cfa_offset 8
	ret
	.p2align 4,,10
	.p2align 3
.L249:
	.cfi_restore_state
	movl	%r8d, %ecx
	jmp	.L247
.L268:
	.cfi_def_cfa_offset 8
	.cfi_restore 3
	notl	%eax
	ret
.L269:
	.cfi_def_cfa_offset 16
	.cfi_offset 3, -16
	movl	%r8d, %ecx
	cmpl	$3, %r8d
	ja	.L244
	jmp	.L245
	.cfi_endproc
.LFE13361:
	.size	_ZN4juce13zlibNamespaceL12crc32_littleEmPKhj, .-_ZN4juce13zlibNamespaceL12crc32_littleEmPKhj
	.p2align 4
	.type	_ZN4juce13zlibNamespaceL13longest_matchEPNS0_14internal_stateEj, @function
_ZN4juce13zlibNamespaceL13longest_matchEPNS0_14internal_stateEj:
.LFB13382:
	.cfi_startproc
	pushq	%r15
	.cfi_def_cfa_offset 16
	.cfi_offset 15, -16
	movl	%esi, %edx
	movl	$0, %ecx
	pushq	%r14
	.cfi_def_cfa_offset 24
	.cfi_offset 14, -24
	pushq	%r13
	.cfi_def_cfa_offset 32
	.cfi_offset 13, -32
	pushq	%r12
	.cfi_def_cfa_offset 40
	.cfi_offset 12, -40
	pushq	%rbp
	.cfi_def_cfa_offset 48
	.cfi_offset 6, -48
	movq	%rdi, %rbp
	pushq	%rbx
	.cfi_def_cfa_offset 56
	.cfi_offset 3, -56
	movl	156(%rbp), %esi
	movl	68(%rbp), %r10d
	movq	80(%rbp), %r9
	leal	262(%rsi), %r8d
	movl	168(%rbp), %eax
	movq	96(%rbp), %rbx
	leal	-262(%r10), %r11d
	subl	%r10d, %r8d
	leaq	(%r9,%rsi), %r12
	movl	172(%rdi), %edi
	cmpl	%esi, %r11d
	movl	192(%rbp), %r14d
	movl	76(%rbp), %r11d
	cmovnb	%ecx, %r8d
	leaq	258(%r9,%rsi), %rcx
	movq	%rcx, -8(%rsp)
	movslq	%eax, %rcx
	movzbl	-1(%r12,%rcx), %r13d
	movzbl	(%r12,%rcx), %r10d
	movl	%edi, %ecx
	shrl	$2, %ecx
	cmpl	188(%rbp), %eax
	cmovnb	%ecx, %edi
	movl	164(%rbp), %ecx
	cmpl	%ecx, %r14d
	cmova	%ecx, %r14d
	.p2align 4
	.p2align 3
.L289:
	movl	%edx, %esi
	movslq	%eax, %r15
	addq	%r9, %rsi
	cmpb	%r10b, (%rsi,%r15)
	jne	.L286
	cmpb	%r13b, -1(%rsi,%r15)
	jne	.L286
	movzbl	(%r12), %r15d
	cmpb	%r15b, (%rsi)
	jne	.L286
	movzbl	1(%r12), %r15d
	cmpb	%r15b, 1(%rsi)
	je	.L297
	.p2align 4
	.p2align 3
.L286:
	andl	%r11d, %edx
	movzwl	(%rbx,%rdx,2), %edx
	cmpl	%edx, %r8d
	jb	.L298
.L287:
	cmpl	%ecx, %eax
	popq	%rbx
	.cfi_remember_state
	.cfi_def_cfa_offset 48
	popq	%rbp
	.cfi_def_cfa_offset 40
	cmova	%ecx, %eax
	popq	%r12
	.cfi_def_cfa_offset 32
	popq	%r13
	.cfi_def_cfa_offset 24
	popq	%r14
	.cfi_def_cfa_offset 16
	popq	%r15
	.cfi_def_cfa_offset 8
	ret
	.p2align 4,,10
	.p2align 3
.L298:
	.cfi_restore_state
	subl	$1, %edi
	jne	.L289
	cmpl	%ecx, %eax
	popq	%rbx
	.cfi_remember_state
	.cfi_def_cfa_offset 48
	popq	%rbp
	.cfi_def_cfa_offset 40
	cmova	%ecx, %eax
	popq	%r12
	.cfi_def_cfa_offset 32
	popq	%r13
	.cfi_def_cfa_offset 24
	popq	%r14
	.cfi_def_cfa_offset 16
	popq	%r15
	.cfi_def_cfa_offset 8
	ret
	.p2align 4,,10
	.p2align 3
.L297:
	.cfi_restore_state
	movl	%eax, -12(%rsp)
	leaq	2(%r12), %r15
	addq	$2, %rsi
.L284:
	movzbl	1(%rsi), %eax
	cmpb	%al, 1(%r15)
	jne	.L275
	movzbl	2(%rsi), %eax
	cmpb	%al, 2(%r15)
	jne	.L299
	movzbl	3(%rsi), %eax
	cmpb	%al, 3(%r15)
	jne	.L300
	movzbl	4(%rsi), %eax
	cmpb	%al, 4(%r15)
	jne	.L301
	movzbl	5(%rsi), %eax
	cmpb	%al, 5(%r15)
	jne	.L302
	movzbl	6(%rsi), %eax
	cmpb	%al, 6(%r15)
	jne	.L303
	movzbl	7(%rsi), %eax
	cmpb	%al, 7(%r15)
	jne	.L304
	addq	$8, %r15
	movzbl	8(%rsi), %eax
	cmpb	%al, (%r15)
	je	.L305
.L294:
	subl	-8(%rsp), %r15d
	movl	-12(%rsp), %eax
	leal	258(%r15), %esi
	cmpl	%esi, %eax
	jge	.L286
.L306:
	movl	%edx, 160(%rbp)
	cmpl	%r14d, %esi
	jge	.L291
	movslq	%esi, %rax
	movzbl	-1(%r12,%rax), %r13d
	movzbl	(%r12,%rax), %r10d
	movl	%esi, %eax
	jmp	.L286
	.p2align 4,,10
	.p2align 3
.L275:
	movl	-12(%rsp), %eax
	addq	$1, %r15
.L277:
	subl	-8(%rsp), %r15d
	leal	258(%r15), %esi
	cmpl	%esi, %eax
	jge	.L286
	jmp	.L306
	.p2align 4,,10
	.p2align 3
.L299:
	movl	-12(%rsp), %eax
	addq	$2, %r15
	jmp	.L277
	.p2align 4,,10
	.p2align 3
.L300:
	movl	-12(%rsp), %eax
	addq	$3, %r15
	jmp	.L277
	.p2align 4,,10
	.p2align 3
.L301:
	movl	-12(%rsp), %eax
	addq	$4, %r15
	jmp	.L277
	.p2align 4,,10
	.p2align 3
.L302:
	movl	-12(%rsp), %eax
	addq	$5, %r15
	jmp	.L277
	.p2align 4,,10
	.p2align 3
.L303:
	movl	-12(%rsp), %eax
	addq	$6, %r15
	jmp	.L277
	.p2align 4,,10
	.p2align 3
.L304:
	movl	-12(%rsp), %eax
	addq	$7, %r15
	jmp	.L277
.L305:
	addq	$8, %rsi
	cmpq	-8(%rsp), %r15
	jb	.L284
	jmp	.L294
.L291:
	movl	%esi, %eax
	jmp	.L287
	.cfi_endproc
.LFE13382:
	.size	_ZN4juce13zlibNamespaceL13longest_matchEPNS0_14internal_stateEj, .-_ZN4juce13zlibNamespaceL13longest_matchEPNS0_14internal_stateEj
	.p2align 4
	.type	_ZN4juce13zlibNamespaceL18longest_match_fastEPNS0_14internal_stateEj, @function
_ZN4juce13zlibNamespaceL18longest_match_fastEPNS0_14internal_stateEj:
.LFB13383:
	.cfi_startproc
	movl	%esi, %edx
	movq	80(%rdi), %rcx
	movl	156(%rdi), %esi
	movq	%rdx, %r8
	leaq	(%rcx,%rsi), %rax
	addq	%rcx, %rdx
	movzbl	(%rax), %r9d
	cmpb	%r9b, (%rdx)
	jne	.L310
	movzbl	1(%rax), %r10d
	cmpb	%r10b, 1(%rdx)
	jne	.L310
	leaq	258(%rcx,%rsi), %rcx
	addq	$2, %rax
	addq	$2, %rdx
.L320:
	movzbl	1(%rdx), %esi
	cmpb	%sil, 1(%rax)
	jne	.L311
	movzbl	2(%rdx), %esi
	cmpb	%sil, 2(%rax)
	jne	.L322
	movzbl	3(%rdx), %esi
	cmpb	%sil, 3(%rax)
	jne	.L323
	movzbl	4(%rdx), %esi
	cmpb	%sil, 4(%rax)
	jne	.L324
	movzbl	5(%rdx), %esi
	cmpb	%sil, 5(%rax)
	jne	.L325
	movzbl	6(%rdx), %esi
	cmpb	%sil, 6(%rax)
	jne	.L326
	movzbl	7(%rdx), %esi
	cmpb	%sil, 7(%rax)
	jne	.L327
	addq	$8, %rax
	movzbl	8(%rdx), %esi
	cmpb	%sil, (%rax)
	je	.L328
	.p2align 4
	.p2align 3
.L313:
	subq	%rax, %rcx
	cmpl	$255, %ecx
	jg	.L310
	movl	164(%rdi), %edx
	movl	$258, %eax
	movl	%r8d, 160(%rdi)
	subl	%ecx, %eax
	cmpl	%edx, %eax
	cmova	%edx, %eax
	ret
	.p2align 4,,10
	.p2align 3
.L310:
	movl	$2, %eax
	ret
	.p2align 4,,10
	.p2align 3
.L311:
	addq	$1, %rax
	jmp	.L313
	.p2align 4,,10
	.p2align 3
.L322:
	addq	$2, %rax
	jmp	.L313
	.p2align 4,,10
	.p2align 3
.L323:
	addq	$3, %rax
	jmp	.L313
	.p2align 4,,10
	.p2align 3
.L324:
	addq	$4, %rax
	jmp	.L313
	.p2align 4,,10
	.p2align 3
.L325:
	addq	$5, %rax
	jmp	.L313
	.p2align 4,,10
	.p2align 3
.L328:
	addq	$8, %rdx
	cmpq	%rcx, %rax
	jb	.L320
	jmp	.L313
	.p2align 4,,10
	.p2align 3
.L326:
	addq	$6, %rax
	jmp	.L313
	.p2align 4,,10
	.p2align 3
.L327:
	addq	$7, %rax
	jmp	.L313
	.cfi_endproc
.LFE13383:
	.size	_ZN4juce13zlibNamespaceL18longest_match_fastEPNS0_14internal_stateEj, .-_ZN4juce13zlibNamespaceL18longest_match_fastEPNS0_14internal_stateEj
	.p2align 4
	.type	_ZN4juce13zlibNamespaceL9scan_treeEPNS0_14internal_stateEPNS0_9ct_data_sEi, @function
_ZN4juce13zlibNamespaceL9scan_treeEPNS0_14internal_stateEPNS0_9ct_data_sEi:
.LFB13411:
	.cfi_startproc
	movzwl	2(%rsi), %ecx
	testl	%ecx, %ecx
	je	.L351
	movl	$4, %r8d
	movl	$7, %r10d
.L330:
	movslq	%edx, %rax
	movl	$-1, %r9d
	movw	%r9w, 6(%rsi,%rax,4)
	testl	%edx, %edx
	js	.L329
	movl	%edx, %edx
	leaq	6(%rsi), %rax
	movl	$-1, %r9d
	leaq	10(%rsi,%rdx,4), %r11
	xorl	%esi, %esi
.L350:
	addl	$1, %esi
	movzwl	(%rax), %edx
	cmpl	%r10d, %esi
	jl	.L332
	cmpl	%r8d, %esi
	jge	.L336
	movl	%ecx, %r8d
	movl	%ecx, %r9d
	addq	$4, %rax
	movl	%edx, %ecx
	addw	%si, 2732(%rdi,%r8,4)
	testl	%edx, %edx
	jne	.L346
.L368:
	cmpq	%r11, %rax
	je	.L329
.L359:
	movzwl	(%rax), %edx
	movl	$3, %r8d
	movl	$138, %r10d
	movl	$1, %esi
.L332:
	cmpl	%ecx, %edx
	je	.L334
.L370:
	cmpl	%r8d, %esi
	jl	.L367
.L336:
	testl	%ecx, %ecx
	je	.L340
	cmpl	%ecx, %r9d
	je	.L341
	movl	%ecx, %esi
	addw	$1, 2732(%rdi,%rsi,4)
.L341:
	movl	%ecx, %r9d
	addw	$1, 2796(%rdi)
	movl	%edx, %ecx
	addq	$4, %rax
	testl	%edx, %edx
	je	.L368
.L346:
	cmpl	%r9d, %edx
	jne	.L369
	cmpq	%rax, %r11
	je	.L329
	movzwl	(%rax), %edx
	movl	$3, %r8d
	movl	$6, %r10d
	movl	$1, %esi
	cmpl	%ecx, %edx
	jne	.L370
.L334:
	addq	$4, %rax
	cmpq	%r11, %rax
	jne	.L350
.L329:
	ret
	.p2align 4,,10
	.p2align 3
.L367:
	movl	%ecx, %r8d
	addw	%si, 2732(%rdi,%r8,4)
	testl	%edx, %edx
	jne	.L371
.L337:
	addq	$4, %rax
	cmpq	%rax, %r11
	je	.L329
	movzwl	(%rax), %edx
	xorl	%r9d, %r9d
	movl	$1, %esi
	movl	$3, %r8d
	movl	$138, %r10d
	cmpl	%r9d, %edx
	je	.L352
.L372:
	movl	%r9d, %ecx
	movl	%ecx, %r8d
	addw	%si, 2732(%rdi,%r8,4)
	testl	%edx, %edx
	je	.L337
.L371:
	addq	$4, %rax
	cmpq	%rax, %r11
	je	.L329
	movl	%edx, %r9d
	movzwl	(%rax), %edx
	movl	$4, %r8d
	movl	$7, %r10d
	movl	$1, %esi
	cmpl	%r9d, %edx
	jne	.L372
.L352:
	addq	$4, %rax
	movl	%ecx, %r9d
	movl	%edx, %ecx
	cmpq	%r11, %rax
	jne	.L350
	ret
	.p2align 4,,10
	.p2align 3
.L340:
	cmpl	$10, %esi
	jg	.L342
	addw	$1, 2800(%rdi)
	addq	$4, %rax
	testl	%edx, %edx
	je	.L373
.L364:
	cmpq	%rax, %r11
	je	.L329
	xorl	%r9d, %r9d
	movl	%edx, %ecx
.L362:
	movzwl	(%rax), %edx
	movl	$4, %r8d
	movl	$7, %r10d
	movl	$1, %esi
	jmp	.L332
	.p2align 4,,10
	.p2align 3
.L342:
	addw	$1, 2804(%rdi)
	testl	%edx, %edx
	jne	.L374
	addq	$4, %rax
	cmpq	%rax, %r11
	je	.L329
.L361:
	xorl	%r9d, %r9d
	jmp	.L359
	.p2align 4,,10
	.p2align 3
.L369:
	cmpq	%rax, %r11
	jne	.L362
	ret
	.p2align 4,,10
	.p2align 3
.L351:
	movl	$3, %r8d
	movl	$138, %r10d
	jmp	.L330
	.p2align 4,,10
	.p2align 3
.L374:
	addq	$4, %rax
	jmp	.L364
	.p2align 4,,10
	.p2align 3
.L373:
	cmpq	%r11, %rax
	jne	.L361
	ret
	.cfi_endproc
.LFE13411:
	.size	_ZN4juce13zlibNamespaceL9scan_treeEPNS0_14internal_stateEPNS0_9ct_data_sEi, .-_ZN4juce13zlibNamespaceL9scan_treeEPNS0_14internal_stateEPNS0_9ct_data_sEi
	.p2align 4
	.type	_ZN4juce13zlibNamespaceL9send_treeEPNS0_14internal_stateEPNS0_9ct_data_sEi, @function
_ZN4juce13zlibNamespaceL9send_treeEPNS0_14internal_stateEPNS0_9ct_data_sEi:
.LFB13412:
	.cfi_startproc
	subq	$40, %rsp
	.cfi_def_cfa_offset 48
	movq	%rsi, %rax
	movzwl	2(%rsi), %esi
	movq	%rbx, (%rsp)
	testl	%esi, %esi
	.cfi_offset 3, -48
	je	.L408
	movl	$4, %ebx
	movl	$7, %ecx
.L376:
	testl	%edx, %edx
	js	.L375
	movl	%edx, %edx
	movq	%r12, 16(%rsp)
	leaq	6(%rax), %r8
	.cfi_offset 12, -32
	movl	$-1, %r12d
	leaq	10(%rax,%rdx,4), %r11
	movq	%rbp, 8(%rsp)
	xorl	%edx, %edx
	movq	%r13, 24(%rsp)
	movq	%r14, 32(%rsp)
	.cfi_offset 6, -40
	.cfi_offset 13, -24
	.cfi_offset 14, -16
	jmp	.L407
	.p2align 4,,10
	.p2align 3
.L445:
	cmpl	%r9d, %r12d
	je	.L395
	movl	%r9d, %ebx
	movzwl	2734(%rdi,%rbx,4), %eax
	movzwl	2732(%rdi,%rbx,4), %ebx
	movl	%ebx, %r12d
	sall	%cl, %r12d
	orl	%r12d, %ebp
	movl	$16, %r12d
	subl	%eax, %r12d
	cmpl	%ecx, %r12d
	jge	.L396
	movl	40(%rdi), %ecx
	movq	16(%rdi), %r12
	movw	%bp, 5920(%rdi)
	leal	1(%rcx), %r13d
	movl	%r13d, 40(%rdi)
	movb	%bpl, (%r12,%rcx)
	movl	40(%rdi), %ecx
	movzbl	5921(%rdi), %r12d
	movq	16(%rdi), %rbp
	leal	1(%rcx), %r13d
	movl	%r13d, 40(%rdi)
	movb	%r12b, 0(%rbp,%rcx)
	movl	5924(%rdi), %r12d
	movl	$16, %ecx
	subl	%r12d, %ecx
	sarl	%cl, %ebx
	leal	-16(%r12,%rax), %ecx
	movl	%edx, %eax
	movl	%ecx, 5924(%rdi)
	movl	%ebx, %ebp
.L395:
	movzwl	2796(%rdi), %r13d
	movzwl	2798(%rdi), %r12d
	movl	%r13d, %edx
	leal	(%r12,%rcx), %ebx
	sall	%cl, %edx
	orl	%ebp, %edx
	movl	$16, %ebp
	subl	%r12d, %ebp
	cmpl	%ecx, %ebp
	jge	.L398
	movl	40(%rdi), %ecx
	movq	16(%rdi), %rbx
	movw	%dx, 5920(%rdi)
	leal	1(%rcx), %ebp
	movl	%ebp, 40(%rdi)
	movb	%dl, (%rbx,%rcx)
	movl	40(%rdi), %edx
	movzbl	5921(%rdi), %ebx
	movq	16(%rdi), %rcx
	leal	1(%rdx), %ebp
	movl	%ebp, 40(%rdi)
	movb	%bl, (%rcx,%rdx)
	movl	5924(%rdi), %ebx
	movl	$16, %ecx
	subl	%ebx, %ecx
	leal	-16(%rbx,%r12), %ebx
	sarl	%cl, %r13d
	movl	%r13d, %edx
.L398:
	subl	$3, %eax
	movl	%ebx, %ecx
	movl	%ebx, 5924(%rdi)
	movl	%eax, %r14d
	sall	%cl, %r14d
	orl	%r14d, %edx
	movw	%dx, 5920(%rdi)
	cmpl	$14, %ebx
	jle	.L399
	movl	40(%rdi), %ecx
	movq	16(%rdi), %rbx
	movzwl	%ax, %eax
	leal	1(%rcx), %ebp
	movl	%ebp, 40(%rdi)
	movb	%dl, (%rbx,%rcx)
	movl	40(%rdi), %edx
	movzbl	5921(%rdi), %ebx
	movq	16(%rdi), %rcx
	leal	1(%rdx), %ebp
	movl	%ebp, 40(%rdi)
	movb	%bl, (%rcx,%rdx)
	movl	5924(%rdi), %edx
	movl	$16, %ecx
	subl	%edx, %ecx
	subl	$14, %edx
	sarl	%cl, %eax
	movl	%edx, 5924(%rdi)
	movw	%ax, 5920(%rdi)
.L383:
	testl	%esi, %esi
	je	.L414
	cmpl	%esi, %r9d
	jne	.L415
	movl	%esi, %r12d
	movl	$3, %ebx
	movl	$6, %ecx
	xorl	%edx, %edx
	.p2align 4
	.p2align 3
.L378:
	addq	$4, %r8
	cmpq	%r11, %r8
	je	.L443
.L407:
	leal	1(%rdx), %eax
	movl	%esi, %r9d
	movzwl	(%r8), %esi
	cmpl	%ecx, %eax
	jge	.L416
	cmpl	%esi, %r9d
	je	.L409
.L416:
	movl	5924(%rdi), %ecx
	movzwl	5920(%rdi), %ebp
	cmpl	%ebx, %eax
	jl	.L444
	testl	%r9d, %r9d
	jne	.L445
	cmpl	$10, %eax
	jg	.L400
	movzwl	2800(%rdi), %ebx
	movzwl	2802(%rdi), %eax
	movl	$16, %r12d
	movl	%ebx, %r9d
	subl	%eax, %r12d
	sall	%cl, %r9d
	orl	%ebp, %r9d
	cmpl	%ecx, %r12d
	jge	.L401
	movl	40(%rdi), %ecx
	movq	16(%rdi), %rbp
	movw	%r9w, 5920(%rdi)
	leal	1(%rcx), %r12d
	movl	%r12d, 40(%rdi)
	movb	%r9b, 0(%rbp,%rcx)
	movl	40(%rdi), %ecx
	movzbl	5921(%rdi), %ebp
	movq	16(%rdi), %r9
	leal	1(%rcx), %r12d
	movl	%r12d, 40(%rdi)
	movb	%bpl, (%r9,%rcx)
	movl	5924(%rdi), %ebp
	movl	$16, %ecx
	subl	%ebp, %ecx
	sarl	%cl, %ebx
	leal	-16(%rbp,%rax), %ecx
	movl	%ebx, %r9d
.L402:
	subl	$2, %edx
	movl	%ecx, 5924(%rdi)
	movl	%edx, %eax
	sall	%cl, %eax
	orl	%r9d, %eax
	movw	%ax, 5920(%rdi)
	cmpl	$13, %ecx
	jle	.L403
	movl	40(%rdi), %ecx
	movq	16(%rdi), %r9
	movzwl	%dx, %edx
	leal	1(%rcx), %ebx
	movl	%ebx, 40(%rdi)
	movb	%al, (%r9,%rcx)
	movl	40(%rdi), %eax
	movzbl	5921(%rdi), %r9d
	movq	16(%rdi), %rcx
	leal	1(%rax), %ebx
	movl	%ebx, 40(%rdi)
	movb	%r9b, (%rcx,%rax)
	movl	5924(%rdi), %eax
	movl	$16, %ecx
	subl	%eax, %ecx
	subl	$13, %eax
	sarl	%cl, %edx
	movw	%dx, 5920(%rdi)
.L440:
	movl	%eax, 5924(%rdi)
	xorl	%edx, %edx
	xorl	%r12d, %r12d
	testl	%esi, %esi
	je	.L437
.L438:
	addq	$4, %r8
	movl	$4, %ebx
	movl	$7, %ecx
	cmpq	%r11, %r8
	jne	.L407
	.p2align 4
	.p2align 3
.L443:
	movq	8(%rsp), %rbp
	.cfi_restore 6
	movq	16(%rsp), %r12
	.cfi_restore 12
	movq	24(%rsp), %r13
	.cfi_restore 13
	movq	32(%rsp), %r14
	.cfi_restore 14
.L375:
	movq	(%rsp), %rbx
	addq	$40, %rsp
	.cfi_def_cfa_offset 8
	ret
	.p2align 4,,10
	.p2align 3
.L414:
	.cfi_def_cfa_offset 48
	.cfi_offset 6, -40
	.cfi_offset 12, -32
	.cfi_offset 13, -24
	.cfi_offset 14, -16
	xorl	%edx, %edx
	movl	%r9d, %r12d
.L437:
	movl	$3, %ebx
	movl	$138, %ecx
	jmp	.L378
	.p2align 4,,10
	.p2align 3
.L444:
	movl	%r9d, %eax
	leaq	(%rdi,%rax,4), %rbx
	movzwl	2732(%rbx), %r12d
	movzwl	2734(%rbx), %eax
	movl	%r12d, %r13d
	sall	%cl, %r13d
	orl	%r13d, %ebp
	movl	$16, %r13d
	subl	%eax, %r13d
	cmpl	%ecx, %r13d
	jl	.L381
	addl	%eax, %ecx
.L382:
	movw	%bp, 5920(%rdi)
	movl	%ecx, 5924(%rdi)
	testl	%edx, %edx
	je	.L383
	movzwl	2732(%rbx), %r12d
	movzwl	2734(%rbx), %eax
	movl	%r12d, %r13d
	sall	%cl, %r13d
	orl	%r13d, %ebp
	movl	$16, %r13d
	subl	%eax, %r13d
	cmpl	%ecx, %r13d
	jl	.L384
	addl	%eax, %ecx
.L385:
	movw	%bp, 5920(%rdi)
	movl	%ecx, 5924(%rdi)
	cmpl	$1, %edx
	je	.L383
	movzwl	2732(%rbx), %r12d
	movzwl	2734(%rbx), %eax
	movl	%r12d, %r13d
	sall	%cl, %r13d
	orl	%r13d, %ebp
	movl	$16, %r13d
	subl	%eax, %r13d
	cmpl	%ecx, %r13d
	jl	.L386
	addl	%eax, %ecx
.L387:
	movw	%bp, 5920(%rdi)
	movl	%ecx, 5924(%rdi)
	cmpl	$2, %edx
	je	.L383
	movzwl	2732(%rbx), %r13d
	movzwl	2734(%rbx), %r12d
	movl	%r13d, %eax
	sall	%cl, %eax
	orl	%ebp, %eax
	movl	$16, %ebp
	subl	%r12d, %ebp
	cmpl	%ebp, %ecx
	jg	.L388
	addl	%r12d, %ecx
.L389:
	movw	%ax, 5920(%rdi)
	movl	%ecx, 5924(%rdi)
	cmpl	$3, %edx
	je	.L383
	movzwl	2732(%rbx), %r12d
	movzwl	2734(%rbx), %ebp
	movl	%r12d, %r13d
	sall	%cl, %r13d
	orl	%r13d, %eax
	movl	$16, %r13d
	subl	%ebp, %r13d
	cmpl	%ecx, %r13d
	jl	.L390
	addl	%ebp, %ecx
.L391:
	movw	%ax, 5920(%rdi)
	movl	%ecx, 5924(%rdi)
	cmpl	$4, %edx
	je	.L383
	movzwl	2732(%rbx), %r12d
	movzwl	2734(%rbx), %edx
	movl	%r12d, %ebx
	leal	(%rcx,%rdx), %ebp
	sall	%cl, %ebx
	orl	%ebx, %eax
	movl	$16, %ebx
	movl	%ebx, %r13d
	subl	%edx, %r13d
	cmpl	%ecx, %r13d
	jge	.L393
	movl	40(%rdi), %ecx
	movq	16(%rdi), %rbp
	movw	%ax, 5920(%rdi)
	leal	1(%rcx), %r13d
	movl	%r13d, 40(%rdi)
	movb	%al, 0(%rbp,%rcx)
	movl	40(%rdi), %eax
	movzbl	5921(%rdi), %ebp
	movq	16(%rdi), %rcx
	leal	1(%rax), %r13d
	movl	%r13d, 40(%rdi)
	movb	%bpl, (%rcx,%rax)
	movl	5924(%rdi), %ebp
	subl	%ebp, %ebx
	leal	-16(%rbp,%rdx), %ebp
	movl	%ebx, %ecx
	sarl	%cl, %r12d
	movl	%r12d, %eax
.L393:
	movw	%ax, 5920(%rdi)
	movl	%ebp, 5924(%rdi)
	jmp	.L383
	.p2align 4,,10
	.p2align 3
.L399:
	leal	2(%rbx), %ecx
	movl	%ecx, 5924(%rdi)
	jmp	.L383
	.p2align 4,,10
	.p2align 3
.L400:
	movzwl	2804(%rdi), %r12d
	movzwl	2806(%rdi), %ebx
	movl	%r12d, %eax
	leal	(%rbx,%rcx), %r9d
	sall	%cl, %eax
	orl	%ebp, %eax
	movl	$16, %ebp
	subl	%ebx, %ebp
	cmpl	%ecx, %ebp
	jge	.L405
	movl	40(%rdi), %ecx
	movq	16(%rdi), %r9
	movw	%ax, 5920(%rdi)
	leal	1(%rcx), %ebp
	movl	%ebp, 40(%rdi)
	movb	%al, (%r9,%rcx)
	movl	40(%rdi), %eax
	movzbl	5921(%rdi), %r9d
	movq	16(%rdi), %rcx
	leal	1(%rax), %ebp
	movl	%ebp, 40(%rdi)
	movb	%r9b, (%rcx,%rax)
	movl	5924(%rdi), %r9d
	movl	$16, %ecx
	subl	%r9d, %ecx
	leal	-16(%r9,%rbx), %r9d
	sarl	%cl, %r12d
	movl	%r12d, %eax
.L405:
	subl	$10, %edx
	movl	%r9d, %ecx
	movl	%r9d, 5924(%rdi)
	movl	%edx, %ebx
	sall	%cl, %ebx
	orl	%ebx, %eax
	movw	%ax, 5920(%rdi)
	cmpl	$9, %r9d
	jle	.L406
	movl	40(%rdi), %ecx
	movq	16(%rdi), %r9
	leal	1(%rcx), %ebx
	movl	%ebx, 40(%rdi)
	movb	%al, (%r9,%rcx)
	movl	40(%rdi), %eax
	movzbl	5921(%rdi), %r9d
	movq	16(%rdi), %rcx
	leal	1(%rax), %ebx
	movl	%ebx, 40(%rdi)
	movb	%r9b, (%rcx,%rax)
	movl	5924(%rdi), %eax
	movl	$16, %ecx
	subl	%eax, %ecx
	subl	$9, %eax
	sarl	%cl, %edx
	movw	%dx, 5920(%rdi)
	jmp	.L440
	.p2align 4,,10
	.p2align 3
.L415:
	movl	%r9d, %r12d
	movl	$4, %ebx
	movl	$7, %ecx
	xorl	%edx, %edx
	jmp	.L378
	.p2align 4,,10
	.p2align 3
.L381:
	movl	40(%rdi), %ecx
	movq	16(%rdi), %r13
	movw	%bp, 5920(%rdi)
	leal	1(%rcx), %r14d
	movl	%r14d, 40(%rdi)
	movb	%bpl, 0(%r13,%rcx)
	movl	40(%rdi), %ecx
	movzbl	5921(%rdi), %r13d
	movq	16(%rdi), %rbp
	leal	1(%rcx), %r14d
	movl	%r14d, 40(%rdi)
	movb	%r13b, 0(%rbp,%rcx)
	movl	5924(%rdi), %r13d
	movl	$16, %ecx
	subl	%r13d, %ecx
	sarl	%cl, %r12d
	leal	-16(%r13,%rax), %ecx
	movl	%r12d, %ebp
	jmp	.L382
	.p2align 4,,10
	.p2align 3
.L396:
	addl	%eax, %ecx
	movl	%edx, %eax
	movl	%ecx, 5924(%rdi)
	jmp	.L395
	.p2align 4,,10
	.p2align 3
.L384:
	movl	40(%rdi), %ecx
	movq	16(%rdi), %r13
	movw	%bp, 5920(%rdi)
	leal	1(%rcx), %r14d
	movl	%r14d, 40(%rdi)
	movb	%bpl, 0(%r13,%rcx)
	movl	40(%rdi), %ecx
	movzbl	5921(%rdi), %r13d
	movq	16(%rdi), %rbp
	leal	1(%rcx), %r14d
	movl	%r14d, 40(%rdi)
	movb	%r13b, 0(%rbp,%rcx)
	movl	5924(%rdi), %r13d
	movl	$16, %ecx
	subl	%r13d, %ecx
	sarl	%cl, %r12d
	leal	-16(%r13,%rax), %ecx
	movl	%r12d, %ebp
	jmp	.L385
	.p2align 4,,10
	.p2align 3
.L409:
	movl	%eax, %edx
	jmp	.L378
	.p2align 4,,10
	.p2align 3
.L386:
	movl	40(%rdi), %ecx
	movq	16(%rdi), %r13
	movw	%bp, 5920(%rdi)
	leal	1(%rcx), %r14d
	movl	%r14d, 40(%rdi)
	movb	%bpl, 0(%r13,%rcx)
	movl	40(%rdi), %ecx
	movzbl	5921(%rdi), %r13d
	movq	16(%rdi), %rbp
	leal	1(%rcx), %r14d
	movl	%r14d, 40(%rdi)
	movb	%r13b, 0(%rbp,%rcx)
	movl	5924(%rdi), %r13d
	movl	$16, %ecx
	subl	%r13d, %ecx
	sarl	%cl, %r12d
	leal	-16(%r13,%rax), %ecx
	movl	%r12d, %ebp
	jmp	.L387
	.p2align 4,,10
	.p2align 3
.L406:
	addl	$7, %r9d
	xorl	%edx, %edx
	xorl	%r12d, %r12d
	movl	%r9d, 5924(%rdi)
	testl	%esi, %esi
	jne	.L438
	movl	$3, %ebx
	movl	$138, %ecx
	jmp	.L378
	.p2align 4,,10
	.p2align 3
.L403:
	addl	$3, %ecx
	xorl	%edx, %edx
	xorl	%r12d, %r12d
	movl	%ecx, 5924(%rdi)
	testl	%esi, %esi
	jne	.L438
	movl	$3, %ebx
	movl	$138, %ecx
	jmp	.L378
	.p2align 4,,10
	.p2align 3
.L401:
	addl	%eax, %ecx
	jmp	.L402
	.p2align 4,,10
	.p2align 3
.L388:
	movl	40(%rdi), %ecx
	movq	16(%rdi), %rbp
	movw	%ax, 5920(%rdi)
	leal	1(%rcx), %r14d
	movl	%r14d, 40(%rdi)
	movb	%al, 0(%rbp,%rcx)
	movl	40(%rdi), %eax
	movzbl	5921(%rdi), %ebp
	movq	16(%rdi), %rcx
	leal	1(%rax), %r14d
	movl	%r14d, 40(%rdi)
	movb	%bpl, (%rcx,%rax)
	movl	5924(%rdi), %ebp
	movl	$16, %ecx
	subl	%ebp, %ecx
	sarl	%cl, %r13d
	leal	-16(%rbp,%r12), %ecx
	movl	%r13d, %eax
	jmp	.L389
	.p2align 4,,10
	.p2align 3
.L408:
	.cfi_restore 6
	.cfi_restore 12
	.cfi_restore 13
	.cfi_restore 14
	movl	$3, %ebx
	movl	$138, %ecx
	jmp	.L376
	.p2align 4,,10
	.p2align 3
.L390:
	.cfi_offset 6, -40
	.cfi_offset 12, -32
	.cfi_offset 13, -24
	.cfi_offset 14, -16
	movl	40(%rdi), %ecx
	movq	16(%rdi), %r13
	movw	%ax, 5920(%rdi)
	leal	1(%rcx), %r14d
	movl	%r14d, 40(%rdi)
	movb	%al, 0(%r13,%rcx)
	movl	40(%rdi), %eax
	movzbl	5921(%rdi), %r13d
	movq	16(%rdi), %rcx
	leal	1(%rax), %r14d
	movl	%r14d, 40(%rdi)
	movb	%r13b, (%rcx,%rax)
	movl	5924(%rdi), %r13d
	movl	$16, %ecx
	subl	%r13d, %ecx
	sarl	%cl, %r12d
	leal	-16(%rbp,%r13), %ecx
	movl	%r12d, %eax
	jmp	.L391
	.cfi_endproc
.LFE13412:
	.size	_ZN4juce13zlibNamespaceL9send_treeEPNS0_14internal_stateEPNS0_9ct_data_sEi, .-_ZN4juce13zlibNamespaceL9send_treeEPNS0_14internal_stateEPNS0_9ct_data_sEi
	.p2align 4
	.type	_ZN4juce13zlibNamespaceL14send_all_treesEPNS0_14internal_stateEiii, @function
_ZN4juce13zlibNamespaceL14send_all_treesEPNS0_14internal_stateEiii:
.LFB13414:
	.cfi_startproc
	movl	%ecx, %r9d
	leal	-257(%rsi), %eax
	movl	5924(%rdi), %ecx
	pushq	%rbx
	.cfi_def_cfa_offset 16
	.cfi_offset 3, -16
	movl	%eax, %r11d
	movl	%edx, %r10d
	movl	%esi, %r8d
	sall	%cl, %r11d
	leal	5(%rcx), %edx
	orw	5920(%rdi), %r11w
	cmpl	$11, %ecx
	jle	.L448
	movl	40(%rdi), %edx
	movq	16(%rdi), %rcx
	movw	%r11w, 5920(%rdi)
	movzwl	%ax, %eax
	leal	1(%rdx), %esi
	movl	%esi, 40(%rdi)
	movb	%r11b, (%rcx,%rdx)
	movl	40(%rdi), %edx
	movq	16(%rdi), %rcx
	movzbl	5921(%rdi), %esi
	leal	1(%rdx), %r11d
	movl	%r11d, 40(%rdi)
	movb	%sil, (%rcx,%rdx)
	movl	5924(%rdi), %edx
	movl	$16, %ecx
	subl	%edx, %ecx
	subl	$11, %edx
	sarl	%cl, %eax
	movl	%eax, %r11d
.L448:
	subl	$1, %r10d
	movl	%edx, %ecx
	movl	%edx, 5924(%rdi)
	movl	%r10d, %eax
	sall	%cl, %eax
	orl	%eax, %r11d
	leal	5(%rdx), %eax
	cmpl	$11, %edx
	jle	.L450
	movl	40(%rdi), %eax
	movq	16(%rdi), %rdx
	movw	%r11w, 5920(%rdi)
	leal	1(%rax), %ecx
	movl	%ecx, 40(%rdi)
	movb	%r11b, (%rdx,%rax)
	movl	40(%rdi), %eax
	movzwl	%r10w, %r11d
	movzbl	5921(%rdi), %ecx
	movq	16(%rdi), %rdx
	leal	1(%rax), %esi
	movl	%esi, 40(%rdi)
	movb	%cl, (%rdx,%rax)
	movl	5924(%rdi), %eax
	movl	$16, %ecx
	subl	%eax, %ecx
	subl	$11, %eax
	sarl	%cl, %r11d
.L450:
	leal	-4(%r9), %esi
	movl	%eax, %ecx
	movl	%eax, 5924(%rdi)
	movl	%esi, %edx
	sall	%cl, %edx
	leal	4(%rax), %ecx
	orl	%edx, %r11d
	cmpl	$12, %eax
	jle	.L452
	movl	40(%rdi), %edx
	movq	16(%rdi), %rax
	movw	%r11w, 5920(%rdi)
	leal	1(%rdx), %ecx
	movl	%ecx, 40(%rdi)
	movb	%r11b, (%rax,%rdx)
	movl	40(%rdi), %edx
	movzbl	5921(%rdi), %ecx
	movq	16(%rdi), %rax
	leal	1(%rdx), %r11d
	movl	%r11d, 40(%rdi)
	movb	%cl, (%rax,%rdx)
	movl	5924(%rdi), %edx
	movl	$16, %ecx
	movzwl	%si, %eax
	subl	%edx, %ecx
	sarl	%cl, %eax
	leal	-12(%rdx), %ecx
	movl	%eax, %r11d
.L452:
	leaq	_ZN4juce13zlibNamespaceL8bl_orderE(%rip), %rax
	movl	%ecx, 5924(%rdi)
	movl	$16, %edx
	addq	%rax, %r9
	jmp	.L456
	.p2align 4,,10
	.p2align 3
.L459:
	movl	40(%rdi), %ecx
	movq	16(%rdi), %rsi
	movw	%r11w, 5920(%rdi)
	addq	$1, %rax
	leal	1(%rcx), %ebx
	movl	%ebx, 40(%rdi)
	movb	%r11b, (%rsi,%rcx)
	movl	40(%rdi), %ecx
	movzbl	5921(%rdi), %r11d
	movq	16(%rdi), %rsi
	leal	1(%rcx), %ebx
	movl	%ebx, 40(%rdi)
	movb	%r11b, (%rsi,%rcx)
	movl	5924(%rdi), %esi
	movl	$16, %ecx
	subl	%esi, %ecx
	sarl	%cl, %edx
	leal	-13(%rsi), %ecx
	movw	%dx, 5920(%rdi)
	movl	%edx, %r11d
	movl	%ecx, 5924(%rdi)
	cmpq	%r9, %rax
	je	.L455
.L454:
	movzbl	(%rax), %edx
.L456:
	movzwl	2734(%rdi,%rdx,4), %edx
	movl	%edx, %esi
	sall	%cl, %esi
	orl	%esi, %r11d
	cmpl	$13, %ecx
	jg	.L459
	addl	$3, %ecx
	addq	$1, %rax
	movw	%r11w, 5920(%rdi)
	movl	%ecx, 5924(%rdi)
	cmpq	%rax, %r9
	jne	.L454
.L455:
	leal	-1(%r8), %edx
	leaq	196(%rdi), %rsi
	call	_ZN4juce13zlibNamespaceL9send_treeEPNS0_14internal_stateEPNS0_9ct_data_sEi
	leaq	2488(%rdi), %rsi
	movl	%r10d, %edx
	popq	%rbx
	.cfi_def_cfa_offset 8
	jmp	_ZN4juce13zlibNamespaceL9send_treeEPNS0_14internal_stateEPNS0_9ct_data_sEi
	.cfi_endproc
.LFE13414:
	.size	_ZN4juce13zlibNamespaceL14send_all_treesEPNS0_14internal_stateEiii, .-_ZN4juce13zlibNamespaceL14send_all_treesEPNS0_14internal_stateEiii
	.p2align 4
	.type	_ZN4juce13zlibNamespaceL14compress_blockEPNS0_14internal_stateEPNS0_9ct_data_sES4_, @function
_ZN4juce13zlibNamespaceL14compress_blockEPNS0_14internal_stateEPNS0_9ct_data_sES4_:
.LFB13419:
	.cfi_startproc
	subq	$48, %rsp
	.cfi_def_cfa_offset 56
	movl	5884(%rdi), %r9d
	movzwl	5920(%rdi), %eax
	movq	%rbp, 8(%rsp)
	.cfi_offset 6, -48
	movq	%rsi, %rbp
	movq	%r15, 40(%rsp)
	.cfi_offset 15, -16
	movq	%rdx, %r15
	movl	5924(%rdi), %edx
	movq	%rbx, (%rsp)
	testl	%r9d, %r9d
	.cfi_offset 3, -56
	je	.L461
	movq	%r14, 32(%rsp)
	xorl	%r8d, %r8d
	movl	$16, %r10d
	.cfi_offset 14, -24
	leaq	_ZN4juce13zlibNamespace12_length_codeE(%rip), %r14
	movq	%r12, 16(%rsp)
	movq	%r13, 24(%rsp)
	.cfi_offset 12, -40
	.cfi_offset 13, -32
	jmp	.L475
	.p2align 4,,10
	.p2align 3
.L488:
	leaq	0(%rbp,%rcx,4), %rcx
	movzwl	(%rcx), %esi
	movzwl	2(%rcx), %r11d
	movl	%edx, %ecx
	movl	%esi, %ebx
	sall	%cl, %ebx
	movl	%r10d, %ecx
	orl	%ebx, %eax
	subl	%r11d, %ecx
	movw	%ax, 5920(%rdi)
	cmpl	%edx, %ecx
	jge	.L463
	movl	40(%rdi), %edx
	movq	16(%rdi), %rcx
	leal	1(%rdx), %r9d
	movl	%r9d, 40(%rdi)
	movb	%al, (%rcx,%rdx)
	movl	40(%rdi), %eax
	movzbl	5921(%rdi), %ecx
	movq	16(%rdi), %rdx
	leal	1(%rax), %r9d
	movl	%r9d, 40(%rdi)
	movb	%cl, (%rdx,%rax)
	movl	5924(%rdi), %edx
	movl	%r10d, %ecx
	movl	5884(%rdi), %r9d
	subl	%edx, %ecx
	leal	-16(%rdx,%r11), %edx
	sarl	%cl, %esi
	movl	%edx, 5924(%rdi)
	movw	%si, 5920(%rdi)
	movl	%esi, %eax
.L464:
	addq	$1, %r8
	cmpl	%r9d, %r8d
	jnb	.L487
.L475:
	movq	5888(%rdi), %rcx
	movzwl	(%rcx,%r8,2), %esi
	movq	5872(%rdi), %rcx
	movzbl	(%rcx,%r8), %ecx
	testl	%esi, %esi
	je	.L488
	movzbl	(%r14,%rcx), %r11d
	movzbl	%cl, %ebx
	leal	257(%r11), %ecx
	leaq	0(%rbp,%rcx,4), %rcx
	movzwl	(%rcx), %r13d
	movzwl	2(%rcx), %r12d
	movl	%edx, %ecx
	movl	%r13d, %r9d
	sall	%cl, %r9d
	leal	(%r12,%rdx), %ecx
	orl	%eax, %r9d
	movl	%r10d, %eax
	subl	%r12d, %eax
	cmpl	%edx, %eax
	jge	.L466
	movl	40(%rdi), %eax
	movq	16(%rdi), %rdx
	movw	%r9w, 5920(%rdi)
	leal	1(%rax), %ecx
	movl	%ecx, 40(%rdi)
	movb	%r9b, (%rdx,%rax)
	movl	40(%rdi), %eax
	movzbl	5921(%rdi), %ecx
	movq	16(%rdi), %rdx
	leal	1(%rax), %r9d
	movl	%r9d, 40(%rdi)
	movb	%cl, (%rdx,%rax)
	movl	5924(%rdi), %eax
	movl	%r10d, %ecx
	subl	%eax, %ecx
	sarl	%cl, %r13d
	leal	-16(%rax,%r12), %ecx
	movl	%r13d, %r9d
.L466:
	leaq	_ZN4juce13zlibNamespaceL11extra_lbitsE(%rip), %rax
	movw	%r9w, 5920(%rdi)
	movl	(%rax,%r11,4), %eax
	movl	%ecx, 5924(%rdi)
	testl	%eax, %eax
	je	.L467
	leaq	_ZN4juce13zlibNamespaceL11base_lengthE(%rip), %rdx
	subl	(%rdx,%r11,4), %ebx
	movl	%ebx, %edx
	sall	%cl, %edx
	orl	%edx, %r9d
	movl	%r10d, %edx
	subl	%eax, %edx
	movw	%r9w, 5920(%rdi)
	cmpl	%edx, %ecx
	jle	.L468
	movl	40(%rdi), %edx
	movq	16(%rdi), %rcx
	movzwl	%bx, %ebx
	leal	1(%rdx), %r11d
	movl	%r11d, 40(%rdi)
	movb	%r9b, (%rcx,%rdx)
	movl	40(%rdi), %edx
	movzbl	5921(%rdi), %r9d
	movq	16(%rdi), %rcx
	leal	1(%rdx), %r11d
	movl	%r11d, 40(%rdi)
	movb	%r9b, (%rcx,%rdx)
	movl	5924(%rdi), %edx
	movl	%r10d, %ecx
	subl	%edx, %ecx
	sarl	%cl, %ebx
	leal	-16(%rdx,%rax), %ecx
	movw	%bx, 5920(%rdi)
	movl	%ebx, %r9d
	movl	%ecx, 5924(%rdi)
.L467:
	subl	$1, %esi
	cmpl	$255, %esi
	ja	.L469
	movl	%esi, %eax
	leaq	_ZN4juce13zlibNamespace10_dist_codeE(%rip), %rbx
	movzbl	(%rbx,%rax), %eax
.L470:
	movzbl	%al, %r11d
	leaq	(%r15,%rax,4), %rax
	movzwl	(%rax), %r12d
	movzwl	2(%rax), %ebx
	movl	%r12d, %eax
	leal	(%rbx,%rcx), %edx
	sall	%cl, %eax
	orl	%r9d, %eax
	movl	%r10d, %r9d
	subl	%ebx, %r9d
	cmpl	%ecx, %r9d
	jge	.L472
	movl	40(%rdi), %edx
	movq	16(%rdi), %rcx
	movw	%ax, 5920(%rdi)
	leal	1(%rdx), %r9d
	movl	%r9d, 40(%rdi)
	movb	%al, (%rcx,%rdx)
	movl	40(%rdi), %eax
	movzbl	5921(%rdi), %ecx
	movq	16(%rdi), %rdx
	leal	1(%rax), %r9d
	movl	%r9d, 40(%rdi)
	movb	%cl, (%rdx,%rax)
	movl	5924(%rdi), %edx
	movl	%r10d, %ecx
	subl	%edx, %ecx
	leal	-16(%rdx,%rbx), %edx
	sarl	%cl, %r12d
	movl	%r12d, %eax
.L472:
	movl	%r11d, %ecx
	leaq	_ZN4juce13zlibNamespaceL11extra_dbitsE(%rip), %rbx
	movw	%ax, 5920(%rdi)
	movl	(%rbx,%rcx,4), %r9d
	movl	%edx, 5924(%rdi)
	testl	%r9d, %r9d
	je	.L486
	leaq	_ZN4juce13zlibNamespaceL9base_distE(%rip), %rbx
	subl	(%rbx,%rcx,4), %esi
	movl	%r10d, %ecx
	subl	%r9d, %ecx
	cmpl	%ecx, %edx
	jle	.L474
	movl	%edx, %ecx
	movl	%esi, %ebx
	movzwl	%si, %esi
	addq	$1, %r8
	sall	%cl, %ebx
	movq	16(%rdi), %rcx
	movl	%ebx, %edx
	orl	%eax, %edx
	movl	40(%rdi), %eax
	movw	%dx, 5920(%rdi)
	leal	1(%rax), %r11d
	movl	%r11d, 40(%rdi)
	movb	%dl, (%rcx,%rax)
	movl	40(%rdi), %eax
	movzbl	5921(%rdi), %ecx
	movq	16(%rdi), %rdx
	leal	1(%rax), %r11d
	movl	%r11d, 40(%rdi)
	movb	%cl, (%rdx,%rax)
	movl	5924(%rdi), %edx
	movl	%r10d, %ecx
	subl	%edx, %ecx
	leal	-16(%rdx,%r9), %edx
	movl	5884(%rdi), %r9d
	sarl	%cl, %esi
	movl	%edx, 5924(%rdi)
	movw	%si, 5920(%rdi)
	movl	%esi, %eax
	cmpl	%r9d, %r8d
	jb	.L475
	.p2align 4
	.p2align 3
.L487:
	movq	16(%rsp), %r12
	.cfi_restore 12
	movq	24(%rsp), %r13
	.cfi_restore 13
	movq	32(%rsp), %r14
	.cfi_restore 14
.L461:
	movzwl	1024(%rbp), %r9d
	movl	%edx, %ecx
	movzwl	1026(%rbp), %esi
	movl	%r9d, %ebx
	leal	(%rsi,%rdx), %r8d
	sall	%cl, %ebx
	movl	$16, %ecx
	movl	%ecx, %r10d
	orl	%ebx, %eax
	subl	%esi, %r10d
	cmpl	%edx, %r10d
	jge	.L477
	movl	40(%rdi), %edx
	movq	16(%rdi), %r8
	movw	%ax, 5920(%rdi)
	leal	1(%rdx), %r10d
	movl	%r10d, 40(%rdi)
	movb	%al, (%r8,%rdx)
	movl	40(%rdi), %eax
	movzbl	5921(%rdi), %r8d
	movq	16(%rdi), %rdx
	leal	1(%rax), %r10d
	movl	%r10d, 40(%rdi)
	movb	%r8b, (%rdx,%rax)
	movl	5924(%rdi), %edx
	subl	%edx, %ecx
	leal	-16(%rdx,%rsi), %r8d
	sarl	%cl, %r9d
	movl	%r9d, %eax
.L477:
	movq	(%rsp), %rbx
	movw	%ax, 5920(%rdi)
	movzwl	1026(%rbp), %eax
	movl	%r8d, 5924(%rdi)
	movq	8(%rsp), %rbp
	movq	40(%rsp), %r15
	movl	%eax, 5916(%rdi)
	addq	$48, %rsp
	.cfi_def_cfa_offset 8
	ret
	.p2align 4,,10
	.p2align 3
.L474:
	.cfi_def_cfa_offset 56
	.cfi_offset 12, -40
	.cfi_offset 13, -32
	.cfi_offset 14, -24
	movl	%edx, %ecx
	addl	%r9d, %edx
	sall	%cl, %esi
	movl	%edx, 5924(%rdi)
	orl	%esi, %eax
	movw	%ax, 5920(%rdi)
.L486:
	movl	5884(%rdi), %r9d
	jmp	.L464
	.p2align 4,,10
	.p2align 3
.L469:
	movl	%esi, %eax
	leaq	_ZN4juce13zlibNamespace10_dist_codeE(%rip), %rbx
	shrl	$7, %eax
	addl	$256, %eax
	movzbl	(%rbx,%rax), %eax
	jmp	.L470
	.p2align 4,,10
	.p2align 3
.L463:
	addl	%r11d, %edx
	movl	%edx, 5924(%rdi)
	jmp	.L464
	.p2align 4,,10
	.p2align 3
.L468:
	addl	%eax, %ecx
	movl	%ecx, 5924(%rdi)
	jmp	.L467
	.cfi_endproc
.LFE13419:
	.size	_ZN4juce13zlibNamespaceL14compress_blockEPNS0_14internal_stateEPNS0_9ct_data_sES4_, .-_ZN4juce13zlibNamespaceL14compress_blockEPNS0_14internal_stateEPNS0_9ct_data_sES4_
	.align 2
	.p2align 4
	.globl	_ZN4juce27GZIPDecompressorInputStream14getTotalLengthEv
	.type	_ZN4juce27GZIPDecompressorInputStream14getTotalLengthEv, @function
_ZN4juce27GZIPDecompressorInputStream14getTotalLengthEv:
.LFB13448:
	.cfi_startproc
	movq	24(%rdi), %rax
	ret
	.cfi_endproc
.LFE13448:
	.size	_ZN4juce27GZIPDecompressorInputStream14getTotalLengthEv, .-_ZN4juce27GZIPDecompressorInputStream14getTotalLengthEv
	.align 2
	.p2align 4
	.globl	_ZN4juce27GZIPDecompressorInputStream11isExhaustedEv
	.type	_ZN4juce27GZIPDecompressorInputStream11isExhaustedEv, @function
_ZN4juce27GZIPDecompressorInputStream11isExhaustedEv:
.LFB13450:
	.cfi_startproc
	movq	72(%rdi), %rdx
	movzbl	2(%rdx), %eax
	testb	%al, %al
	jne	.L490
	movzbl	(%rdx), %eax
	testb	%al, %al
	je	.L492
.L490:
	ret
	.p2align 4,,10
	.p2align 3
.L492:
	movzbl	36(%rdi), %eax
	ret
	.cfi_endproc
.LFE13450:
	.size	_ZN4juce27GZIPDecompressorInputStream11isExhaustedEv, .-_ZN4juce27GZIPDecompressorInputStream11isExhaustedEv
	.align 2
	.p2align 4
	.globl	_ZN4juce27GZIPDecompressorInputStream11getPositionEv
	.type	_ZN4juce27GZIPDecompressorInputStream11getPositionEv, @function
_ZN4juce27GZIPDecompressorInputStream11getPositionEv:
.LFB13451:
	.cfi_startproc
	movq	56(%rdi), %rax
	ret
	.cfi_endproc
.LFE13451:
	.size	_ZN4juce27GZIPDecompressorInputStream11getPositionEv, .-_ZN4juce27GZIPDecompressorInputStream11getPositionEv
	.align 2
	.p2align 4
	.globl	_ZN4juce26GZIPCompressorOutputStream11setPositionEx
	.type	_ZN4juce26GZIPCompressorOutputStream11setPositionEx, @function
_ZN4juce26GZIPCompressorOutputStream11setPositionEx:
.LFB13475:
	.cfi_startproc
	xorl	%eax, %eax
	ret
	.cfi_endproc
.LFE13475:
	.size	_ZN4juce26GZIPCompressorOutputStream11setPositionEx, .-_ZN4juce26GZIPCompressorOutputStream11setPositionEx
	.section	.text._ZN4juce7ZipFile14ZipInputStream14getTotalLengthEv,"axG",@progbits,_ZN4juce7ZipFile14ZipInputStream14getTotalLengthEv,comdat
	.align 2
	.p2align 4
	.weak	_ZN4juce7ZipFile14ZipInputStream14getTotalLengthEv
	.type	_ZN4juce7ZipFile14ZipInputStream14getTotalLengthEv, @function
_ZN4juce7ZipFile14ZipInputStream14getTotalLengthEv:
.LFB13506:
	.cfi_startproc
	movq	56(%rdi), %rax
	ret
	.cfi_endproc
.LFE13506:
	.size	_ZN4juce7ZipFile14ZipInputStream14getTotalLengthEv, .-_ZN4juce7ZipFile14ZipInputStream14getTotalLengthEv
	.section	.text._ZN4juce7ZipFile14ZipInputStream11isExhaustedEv,"axG",@progbits,_ZN4juce7ZipFile14ZipInputStream11isExhaustedEv,comdat
	.align 2
	.p2align 4
	.weak	_ZN4juce7ZipFile14ZipInputStream11isExhaustedEv
	.type	_ZN4juce7ZipFile14ZipInputStream11isExhaustedEv, @function
_ZN4juce7ZipFile14ZipInputStream11isExhaustedEv:
.LFB13508:
	.cfi_startproc
	movl	80(%rdi), %edx
	movl	$1, %eax
	testl	%edx, %edx
	jle	.L496
	movq	56(%rdi), %rax
	cmpq	%rax, 72(%rdi)
	setge	%al
.L496:
	ret
	.cfi_endproc
.LFE13508:
	.size	_ZN4juce7ZipFile14ZipInputStream11isExhaustedEv, .-_ZN4juce7ZipFile14ZipInputStream11isExhaustedEv
	.section	.text._ZN4juce7ZipFile14ZipInputStream11getPositionEv,"axG",@progbits,_ZN4juce7ZipFile14ZipInputStream11getPositionEv,comdat
	.align 2
	.p2align 4
	.weak	_ZN4juce7ZipFile14ZipInputStream11getPositionEv
	.type	_ZN4juce7ZipFile14ZipInputStream11getPositionEv, @function
_ZN4juce7ZipFile14ZipInputStream11getPositionEv:
.LFB13509:
	.cfi_startproc
	movq	72(%rdi), %rax
	ret
	.cfi_endproc
.LFE13509:
	.size	_ZN4juce7ZipFile14ZipInputStream11getPositionEv, .-_ZN4juce7ZipFile14ZipInputStream11getPositionEv
	.section	.text._ZN4juce7ZipFile14ZipInputStream11setPositionEx,"axG",@progbits,_ZN4juce7ZipFile14ZipInputStream11setPositionEx,comdat
	.align 2
	.p2align 4
	.weak	_ZN4juce7ZipFile14ZipInputStream11setPositionEx
	.type	_ZN4juce7ZipFile14ZipInputStream11setPositionEx, @function
_ZN4juce7ZipFile14ZipInputStream11setPositionEx:
.LFB13510:
	.cfi_startproc
	xorl	%eax, %eax
	testq	%rsi, %rsi
	js	.L501
	movq	56(%rdi), %rax
	cmpq	%rax, %rsi
	cmovle	%rsi, %rax
.L501:
	movq	%rax, 72(%rdi)
	movl	$1, %eax
	ret
	.cfi_endproc
.LFE13510:
	.size	_ZN4juce7ZipFile14ZipInputStream11setPositionEx, .-_ZN4juce7ZipFile14ZipInputStream11setPositionEx
	.text
	.align 2
	.p2align 4
	.globl	_ZNK4juce4File18isOnRemovableDriveEv
	.type	_ZNK4juce4File18isOnRemovableDriveEv, @function
_ZNK4juce4File18isOnRemovableDriveEv:
.LFB13680:
	.cfi_startproc
	xorl	%eax, %eax
	ret
	.cfi_endproc
.LFE13680:
	.size	_ZNK4juce4File18isOnRemovableDriveEv, .-_ZNK4juce4File18isOnRemovableDriveEv
	.globl	_ZN4juce14UnitTestRunner16shouldAbortTestsEv
	.set	_ZN4juce14UnitTestRunner16shouldAbortTestsEv,_ZNK4juce4File18isOnRemovableDriveEv
	.align 2
	.p2align 4
	.globl	_ZNK4juce4File10getVersionEv
	.type	_ZNK4juce4File10getVersionEv, @function
_ZNK4juce4File10getVersionEv:
.LFB13681:
	.cfi_startproc
	leaq	16+_ZN4juceL11emptyStringE(%rip), %rdx
	movq	%rdi, %rax
	movq	%rdx, (%rdi)
	ret
	.cfi_endproc
.LFE13681:
	.size	_ZNK4juce4File10getVersionEv, .-_ZNK4juce4File10getVersionEv
	.globl	_ZNK4juce10Expression5Scope11getScopeUIDEv
	.set	_ZNK4juce10Expression5Scope11getScopeUIDEv,_ZNK4juce4File10getVersionEv
	.section	.text._ZNK4juce15AndroidDocument5Pimpl28copyDocumentToParentDocumentERKS1_,"axG",@progbits,_ZNK4juce15AndroidDocument5Pimpl28copyDocumentToParentDocumentERKS1_,comdat
	.align 2
	.p2align 4
	.weak	_ZNK4juce15AndroidDocument5Pimpl28copyDocumentToParentDocumentERKS1_
	.type	_ZNK4juce15AndroidDocument5Pimpl28copyDocumentToParentDocumentERKS1_, @function
_ZNK4juce15AndroidDocument5Pimpl28copyDocumentToParentDocumentERKS1_:
.LFB13897:
	.cfi_startproc
	movq	$0, (%rdi)
	movq	%rdi, %rax
	ret
	.cfi_endproc
.LFE13897:
	.size	_ZNK4juce15AndroidDocument5Pimpl28copyDocumentToParentDocumentERKS1_, .-_ZNK4juce15AndroidDocument5Pimpl28copyDocumentToParentDocumentERKS1_
	.section	.text._ZNK4juce15AndroidDocument5Pimpl30moveDocumentFromParentToParentERKS1_S3_,"axG",@progbits,_ZNK4juce15AndroidDocument5Pimpl30moveDocumentFromParentToParentERKS1_S3_,comdat
	.align 2
	.p2align 4
	.weak	_ZNK4juce15AndroidDocument5Pimpl30moveDocumentFromParentToParentERKS1_S3_
	.type	_ZNK4juce15AndroidDocument5Pimpl30moveDocumentFromParentToParentERKS1_S3_, @function
_ZNK4juce15AndroidDocument5Pimpl30moveDocumentFromParentToParentERKS1_S3_:
.LFB13922:
	.cfi_startproc
	movq	$0, (%rdi)
	movq	%rdi, %rax
	ret
	.cfi_endproc
.LFE13922:
	.size	_ZNK4juce15AndroidDocument5Pimpl30moveDocumentFromParentToParentERKS1_S3_, .-_ZNK4juce15AndroidDocument5Pimpl30moveDocumentFromParentToParentERKS1_S3_
	.section	.text._ZNK4juce15AndroidDocument5Pimpl8renameToERKNS_6StringE,"axG",@progbits,_ZNK4juce15AndroidDocument5Pimpl8renameToERKNS_6StringE,comdat
	.align 2
	.p2align 4
	.weak	_ZNK4juce15AndroidDocument5Pimpl8renameToERKNS_6StringE
	.type	_ZNK4juce15AndroidDocument5Pimpl8renameToERKNS_6StringE, @function
_ZNK4juce15AndroidDocument5Pimpl8renameToERKNS_6StringE:
.LFB13923:
	.cfi_startproc
	movq	$0, (%rdi)
	movq	%rdi, %rax
	ret
	.cfi_endproc
.LFE13923:
	.size	_ZNK4juce15AndroidDocument5Pimpl8renameToERKNS_6StringE, .-_ZNK4juce15AndroidDocument5Pimpl8renameToERKNS_6StringE
	.section	.text._ZNK4juce15AndroidDocument5Pimpl34createChildDocumentWithTypeAndNameERKNS_6StringES4_,"axG",@progbits,_ZNK4juce15AndroidDocument5Pimpl34createChildDocumentWithTypeAndNameERKNS_6StringES4_,comdat
	.align 2
	.p2align 4
	.weak	_ZNK4juce15AndroidDocument5Pimpl34createChildDocumentWithTypeAndNameERKNS_6StringES4_
	.type	_ZNK4juce15AndroidDocument5Pimpl34createChildDocumentWithTypeAndNameERKNS_6StringES4_, @function
_ZNK4juce15AndroidDocument5Pimpl34createChildDocumentWithTypeAndNameERKNS_6StringES4_:
.LFB13924:
	.cfi_startproc
	movq	$0, (%rdi)
	movq	%rdi, %rax
	ret
	.cfi_endproc
.LFE13924:
	.size	_ZNK4juce15AndroidDocument5Pimpl34createChildDocumentWithTypeAndNameERKNS_6StringES4_, .-_ZNK4juce15AndroidDocument5Pimpl34createChildDocumentWithTypeAndNameERKNS_6StringES4_
	.section	.text._ZNK4juce15AndroidDocument5Utils24AndroidDocumentPimplFile13getNativeInfoEv,"axG",@progbits,_ZNK4juce15AndroidDocument5Utils24AndroidDocumentPimplFile13getNativeInfoEv,comdat
	.align 2
	.p2align 4
	.weak	_ZNK4juce15AndroidDocument5Utils24AndroidDocumentPimplFile13getNativeInfoEv
	.type	_ZNK4juce15AndroidDocument5Utils24AndroidDocumentPimplFile13getNativeInfoEv, @function
_ZNK4juce15AndroidDocument5Utils24AndroidDocumentPimplFile13getNativeInfoEv:
.LFB13988:
	.cfi_startproc
	ret
	.cfi_endproc
.LFE13988:
	.size	_ZNK4juce15AndroidDocument5Utils24AndroidDocumentPimplFile13getNativeInfoEv, .-_ZNK4juce15AndroidDocument5Utils24AndroidDocumentPimplFile13getNativeInfoEv
	.text
	.align 2
	.p2align 4
	.globl	_ZN4juce3URL20DownloadTaskListener8progressEPNS0_12DownloadTaskExx
	.type	_ZN4juce3URL20DownloadTaskListener8progressEPNS0_12DownloadTaskExx, @function
_ZN4juce3URL20DownloadTaskListener8progressEPNS0_12DownloadTaskExx:
.LFB14138:
	.cfi_startproc
	ret
	.cfi_endproc
.LFE14138:
	.size	_ZN4juce3URL20DownloadTaskListener8progressEPNS0_12DownloadTaskExx, .-_ZN4juce3URL20DownloadTaskListener8progressEPNS0_12DownloadTaskExx
	.section	.text._ZN4juce14WebInputStream8ListenerD2Ev,"axG",@progbits,_ZN4juce14WebInputStream8ListenerD5Ev,comdat
	.align 2
	.p2align 4
	.weak	_ZN4juce14WebInputStream8ListenerD2Ev
	.type	_ZN4juce14WebInputStream8ListenerD2Ev, @function
_ZN4juce14WebInputStream8ListenerD2Ev:
.LFB14260:
	.cfi_startproc
	ret
	.cfi_endproc
.LFE14260:
	.size	_ZN4juce14WebInputStream8ListenerD2Ev, .-_ZN4juce14WebInputStream8ListenerD2Ev
	.weak	_ZN4juce14WebInputStream8ListenerD1Ev
	.set	_ZN4juce14WebInputStream8ListenerD1Ev,_ZN4juce14WebInputStream8ListenerD2Ev
	.text
	.align 2
	.p2align 4
	.globl	_ZN4juce14WebInputStream11isExhaustedEv
	.type	_ZN4juce14WebInputStream11isExhaustedEv, @function
_ZN4juce14WebInputStream11isExhaustedEv:
.LFB14380:
	.cfi_startproc
	movq	8(%rdi), %rax
	movzbl	168(%rax), %eax
	ret
	.cfi_endproc
.LFE14380:
	.size	_ZN4juce14WebInputStream11isExhaustedEv, .-_ZN4juce14WebInputStream11isExhaustedEv
	.align 2
	.p2align 4
	.globl	_ZN4juce14WebInputStream11getPositionEv
	.type	_ZN4juce14WebInputStream11getPositionEv, @function
_ZN4juce14WebInputStream11getPositionEv:
.LFB14381:
	.cfi_startproc
	movq	8(%rdi), %rax
	movq	160(%rax), %rax
	ret
	.cfi_endproc
.LFE14381:
	.size	_ZN4juce14WebInputStream11getPositionEv, .-_ZN4juce14WebInputStream11getPositionEv
	.align 2
	.p2align 4
	.globl	_ZN4juce14WebInputStream8Listener20postDataSendProgressERS0_ii
	.type	_ZN4juce14WebInputStream8Listener20postDataSendProgressERS0_ii, @function
_ZN4juce14WebInputStream8Listener20postDataSendProgressERS0_ii:
.LFB14390:
	.cfi_startproc
	movl	$1, %eax
	ret
	.cfi_endproc
.LFE14390:
	.size	_ZN4juce14WebInputStream8Listener20postDataSendProgressERS0_ii, .-_ZN4juce14WebInputStream8Listener20postDataSendProgressERS0_ii
	.align 2
	.p2align 4
	.type	_ZZNK4juce3URL17createInputStreamERKNS0_18InputStreamOptionsEEN22ProgressCallbackCallerD2Ev, @function
_ZZNK4juce3URL17createInputStreamERKNS0_18InputStreamOptionsEEN22ProgressCallbackCallerD2Ev:
.LFB18201:
	.cfi_startproc
	.cfi_personality 0x9b,DW.ref.__gxx_personality_v0
	.cfi_lsda 0x1b,.LLSDA18201
	leaq	16+_ZTVZNK4juce3URL17createInputStreamERKNS0_18InputStreamOptionsEE22ProgressCallbackCaller(%rip), %rax
	movq	%rax, (%rdi)
	movq	24(%rdi), %rax
	testq	%rax, %rax
	je	.L521
	subq	$8, %rsp
	.cfi_def_cfa_offset 16
	addq	$8, %rdi
	movl	$3, %edx
	movq	%rdi, %rsi
	call	*%rax
	addq	$8, %rsp
	.cfi_def_cfa_offset 8
	ret
	.p2align 4,,10
	.p2align 3
.L521:
	ret
	.cfi_endproc
.LFE18201:
	.section	.gcc_except_table
.LLSDA18201:
	.byte	0xff
	.byte	0xff
	.byte	0x1
	.uleb128 .LLSDACSE18201-.LLSDACSB18201
.LLSDACSB18201:
.LLSDACSE18201:
	.text
	.size	_ZZNK4juce3URL17createInputStreamERKNS0_18InputStreamOptionsEEN22ProgressCallbackCallerD2Ev, .-_ZZNK4juce3URL17createInputStreamERKNS0_18InputStreamOptionsEEN22ProgressCallbackCallerD2Ev
	.set	_ZZNK4juce3URL17createInputStreamERKNS0_18InputStreamOptionsEEN22ProgressCallbackCallerD1Ev,_ZZNK4juce3URL17createInputStreamERKNS0_18InputStreamOptionsEEN22ProgressCallbackCallerD2Ev
	.p2align 4
	.type	_ZNSt17_Function_handlerIFbiiEZNK4juce3URL17createInputStreamEbPFbPviiES3_NS1_6StringEiPNS1_15StringPairArrayEPiiS6_EUliiE_E9_M_invokeERKSt9_Any_dataOiSF_, @function
_ZNSt17_Function_handlerIFbiiEZNK4juce3URL17createInputStreamEbPFbPviiES3_NS1_6StringEiPNS1_15StringPairArrayEPiiS6_EUliiE_E9_M_invokeERKSt9_Any_dataOiSF_:
.LFB19259:
	.cfi_startproc
	movq	(%rdi), %rcx
	movq	8(%rdi), %rax
	movl	(%rdx), %edx
	movl	(%rsi), %esi
	movq	%rcx, %rdi
	jmp	*%rax
	.cfi_endproc
.LFE19259:
	.size	_ZNSt17_Function_handlerIFbiiEZNK4juce3URL17createInputStreamEbPFbPviiES3_NS1_6StringEiPNS1_15StringPairArrayEPiiS6_EUliiE_E9_M_invokeERKSt9_Any_dataOiSF_, .-_ZNSt17_Function_handlerIFbiiEZNK4juce3URL17createInputStreamEbPFbPviiES3_NS1_6StringEiPNS1_15StringPairArrayEPiiS6_EUliiE_E9_M_invokeERKSt9_Any_dataOiSF_
	.section	.text._ZNSt15_Sp_counted_ptrIPN4juce17DirectoryIteratorELN9__gnu_cxx12_Lock_policyE2EED2Ev,"axG",@progbits,_ZNSt15_Sp_counted_ptrIPN4juce17DirectoryIteratorELN9__gnu_cxx12_Lock_policyE2EED5Ev,comdat
	.align 2
	.p2align 4
	.weak	_ZNSt15_Sp_counted_ptrIPN4juce17DirectoryIteratorELN9__gnu_cxx12_Lock_policyE2EED2Ev
	.type	_ZNSt15_Sp_counted_ptrIPN4juce17DirectoryIteratorELN9__gnu_cxx12_Lock_policyE2EED2Ev, @function
_ZNSt15_Sp_counted_ptrIPN4juce17DirectoryIteratorELN9__gnu_cxx12_Lock_policyE2EED2Ev:
.LFB21400:
	.cfi_startproc
	ret
	.cfi_endproc
.LFE21400:
	.size	_ZNSt15_Sp_counted_ptrIPN4juce17DirectoryIteratorELN9__gnu_cxx12_Lock_policyE2EED2Ev, .-_ZNSt15_Sp_counted_ptrIPN4juce17DirectoryIteratorELN9__gnu_cxx12_Lock_policyE2EED2Ev
	.weak	_ZNSt15_Sp_counted_ptrIPN4juce17DirectoryIteratorELN9__gnu_cxx12_Lock_policyE2EED1Ev
	.set	_ZNSt15_Sp_counted_ptrIPN4juce17DirectoryIteratorELN9__gnu_cxx12_Lock_policyE2EED1Ev,_ZNSt15_Sp_counted_ptrIPN4juce17DirectoryIteratorELN9__gnu_cxx12_Lock_policyE2EED2Ev
	.section	.text._ZN4juce10Expression7Helpers6NegateD2Ev,"axG",@progbits,_ZN4juce10Expression7Helpers6NegateD5Ev,comdat
	.align 2
	.p2align 4
	.weak	_ZN4juce10Expression7Helpers6NegateD2Ev
	.type	_ZN4juce10Expression7Helpers6NegateD2Ev, @function
_ZN4juce10Expression7Helpers6NegateD2Ev:
.LFB21432:
	.cfi_startproc
	leaq	16+_ZTVN4juce10Expression7Helpers6NegateE(%rip), %rax
	movq	%rax, (%rdi)
	movq	16(%rdi), %rdi
	testq	%rdi, %rdi
	je	.L526
	subl	$1, 8(%rdi)
	jne	.L526
	movq	(%rdi), %rax
	jmp	*8(%rax)
	.p2align 4,,10
	.p2align 3
.L526:
	ret
	.cfi_endproc
.LFE21432:
	.size	_ZN4juce10Expression7Helpers6NegateD2Ev, .-_ZN4juce10Expression7Helpers6NegateD2Ev
	.weak	_ZN4juce10Expression7Helpers6NegateD1Ev
	.set	_ZN4juce10Expression7Helpers6NegateD1Ev,_ZN4juce10Expression7Helpers6NegateD2Ev
	.section	.text._ZN4juce10Expression7Helpers8ConstantD2Ev,"axG",@progbits,_ZN4juce10Expression7Helpers8ConstantD5Ev,comdat
	.align 2
	.p2align 4
	.weak	_ZN4juce10Expression7Helpers8ConstantD2Ev
	.type	_ZN4juce10Expression7Helpers8ConstantD2Ev, @function
_ZN4juce10Expression7Helpers8ConstantD2Ev:
.LFB21448:
	.cfi_startproc
	ret
	.cfi_endproc
.LFE21448:
	.size	_ZN4juce10Expression7Helpers8ConstantD2Ev, .-_ZN4juce10Expression7Helpers8ConstantD2Ev
	.weak	_ZN4juce10Expression7Helpers8ConstantD1Ev
	.set	_ZN4juce10Expression7Helpers8ConstantD1Ev,_ZN4juce10Expression7Helpers8ConstantD2Ev
	.section	.text._ZNSt23_Sp_counted_ptr_inplaceISt6vectorIPN4juce12ListenerListINS1_6Thread8ListenerENS1_5ArrayIPS4_NS1_15CriticalSectionELi0EEEE8IteratorESaISB_EESaIvELN9__gnu_cxx12_Lock_policyE2EED2Ev,"axG",@progbits,_ZNSt23_Sp_counted_ptr_inplaceISt6vectorIPN4juce12ListenerListINS1_6Thread8ListenerENS1_5ArrayIPS4_NS1_15CriticalSectionELi0EEEE8IteratorESaISB_EESaIvELN9__gnu_cxx12_Lock_policyE2EED5Ev,comdat
	.align 2
	.p2align 4
	.weak	_ZNSt23_Sp_counted_ptr_inplaceISt6vectorIPN4juce12ListenerListINS1_6Thread8ListenerENS1_5ArrayIPS4_NS1_15CriticalSectionELi0EEEE8IteratorESaISB_EESaIvELN9__gnu_cxx12_Lock_policyE2EED2Ev
	.type	_ZNSt23_Sp_counted_ptr_inplaceISt6vectorIPN4juce12ListenerListINS1_6Thread8ListenerENS1_5ArrayIPS4_NS1_15CriticalSectionELi0EEEE8IteratorESaISB_EESaIvELN9__gnu_cxx12_Lock_policyE2EED2Ev, @function
_ZNSt23_Sp_counted_ptr_inplaceISt6vectorIPN4juce12ListenerListINS1_6Thread8ListenerENS1_5ArrayIPS4_NS1_15CriticalSectionELi0EEEE8IteratorESaISB_EESaIvELN9__gnu_cxx12_Lock_policyE2EED2Ev:
.LFB21468:
	.cfi_startproc
	ret
	.cfi_endproc
.LFE21468:
	.size	_ZNSt23_Sp_counted_ptr_inplaceISt6vectorIPN4juce12ListenerListINS1_6Thread8ListenerENS1_5ArrayIPS4_NS1_15CriticalSectionELi0EEEE8IteratorESaISB_EESaIvELN9__gnu_cxx12_Lock_policyE2EED2Ev, .-_ZNSt23_Sp_counted_ptr_inplaceISt6vectorIPN4juce12ListenerListINS1_6Thread8ListenerENS1_5ArrayIPS4_NS1_15CriticalSectionELi0EEEE8IteratorESaISB_EESaIvELN9__gnu_cxx12_Lock_policyE2EED2Ev
	.weak	_ZNSt23_Sp_counted_ptr_inplaceISt6vectorIPN4juce12ListenerListINS1_6Thread8ListenerENS1_5ArrayIPS4_NS1_15CriticalSectionELi0EEEE8IteratorESaISB_EESaIvELN9__gnu_cxx12_Lock_policyE2EED1Ev
	.set	_ZNSt23_Sp_counted_ptr_inplaceISt6vectorIPN4juce12ListenerListINS1_6Thread8ListenerENS1_5ArrayIPS4_NS1_15CriticalSectionELi0EEEE8IteratorESaISB_EESaIvELN9__gnu_cxx12_Lock_policyE2EED1Ev,_ZNSt23_Sp_counted_ptr_inplaceISt6vectorIPN4juce12ListenerListINS1_6Thread8ListenerENS1_5ArrayIPS4_NS1_15CriticalSectionELi0EEEE8IteratorESaISB_EESaIvELN9__gnu_cxx12_Lock_policyE2EED2Ev
	.section	.text._ZNSt23_Sp_counted_ptr_inplaceIN4juce5ArrayIPNS0_6Thread8ListenerENS0_15CriticalSectionELi0EEESaIvELN9__gnu_cxx12_Lock_policyE2EED2Ev,"axG",@progbits,_ZNSt23_Sp_counted_ptr_inplaceIN4juce5ArrayIPNS0_6Thread8ListenerENS0_15CriticalSectionELi0EEESaIvELN9__gnu_cxx12_Lock_policyE2EED5Ev,comdat
	.align 2
	.p2align 4
	.weak	_ZNSt23_Sp_counted_ptr_inplaceIN4juce5ArrayIPNS0_6Thread8ListenerENS0_15CriticalSectionELi0EEESaIvELN9__gnu_cxx12_Lock_policyE2EED2Ev
	.type	_ZNSt23_Sp_counted_ptr_inplaceIN4juce5ArrayIPNS0_6Thread8ListenerENS0_15CriticalSectionELi0EEESaIvELN9__gnu_cxx12_Lock_policyE2EED2Ev, @function
_ZNSt23_Sp_counted_ptr_inplaceIN4juce5ArrayIPNS0_6Thread8ListenerENS0_15CriticalSectionELi0EEESaIvELN9__gnu_cxx12_Lock_policyE2EED2Ev:
.LFB21475:
	.cfi_startproc
	ret
	.cfi_endproc
.LFE21475:
	.size	_ZNSt23_Sp_counted_ptr_inplaceIN4juce5ArrayIPNS0_6Thread8ListenerENS0_15CriticalSectionELi0EEESaIvELN9__gnu_cxx12_Lock_policyE2EED2Ev, .-_ZNSt23_Sp_counted_ptr_inplaceIN4juce5ArrayIPNS0_6Thread8ListenerENS0_15CriticalSectionELi0EEESaIvELN9__gnu_cxx12_Lock_policyE2EED2Ev
	.weak	_ZNSt23_Sp_counted_ptr_inplaceIN4juce5ArrayIPNS0_6Thread8ListenerENS0_15CriticalSectionELi0EEESaIvELN9__gnu_cxx12_Lock_policyE2EED1Ev
	.set	_ZNSt23_Sp_counted_ptr_inplaceIN4juce5ArrayIPNS0_6Thread8ListenerENS0_15CriticalSectionELi0EEESaIvELN9__gnu_cxx12_Lock_policyE2EED1Ev,_ZNSt23_Sp_counted_ptr_inplaceIN4juce5ArrayIPNS0_6Thread8ListenerENS0_15CriticalSectionELi0EEESaIvELN9__gnu_cxx12_Lock_policyE2EED2Ev
	.section	.text._ZNSt23_Sp_counted_ptr_inplaceIN4juce20GenericPlatformTimer5TimerESaIvELN9__gnu_cxx12_Lock_policyE2EED2Ev,"axG",@progbits,_ZNSt23_Sp_counted_ptr_inplaceIN4juce20GenericPlatformTimer5TimerESaIvELN9__gnu_cxx12_Lock_policyE2EED5Ev,comdat
	.align 2
	.p2align 4
	.weak	_ZNSt23_Sp_counted_ptr_inplaceIN4juce20GenericPlatformTimer5TimerESaIvELN9__gnu_cxx12_Lock_policyE2EED2Ev
	.type	_ZNSt23_Sp_counted_ptr_inplaceIN4juce20GenericPlatformTimer5TimerESaIvELN9__gnu_cxx12_Lock_policyE2EED2Ev, @function
_ZNSt23_Sp_counted_ptr_inplaceIN4juce20GenericPlatformTimer5TimerESaIvELN9__gnu_cxx12_Lock_policyE2EED2Ev:
.LFB21482:
	.cfi_startproc
	ret
	.cfi_endproc
.LFE21482:
	.size	_ZNSt23_Sp_counted_ptr_inplaceIN4juce20GenericPlatformTimer5TimerESaIvELN9__gnu_cxx12_Lock_policyE2EED2Ev, .-_ZNSt23_Sp_counted_ptr_inplaceIN4juce20GenericPlatformTimer5TimerESaIvELN9__gnu_cxx12_Lock_policyE2EED2Ev
	.weak	_ZNSt23_Sp_counted_ptr_inplaceIN4juce20GenericPlatformTimer5TimerESaIvELN9__gnu_cxx12_Lock_policyE2EED1Ev
	.set	_ZNSt23_Sp_counted_ptr_inplaceIN4juce20GenericPlatformTimer5TimerESaIvELN9__gnu_cxx12_Lock_policyE2EED1Ev,_ZNSt23_Sp_counted_ptr_inplaceIN4juce20GenericPlatformTimer5TimerESaIvELN9__gnu_cxx12_Lock_policyE2EED2Ev
	.section	.text._ZNSt15_Sp_counted_ptrIPN4juce17DirectoryIteratorELN9__gnu_cxx12_Lock_policyE2EE14_M_get_deleterERKSt9type_info,"axG",@progbits,_ZNSt15_Sp_counted_ptrIPN4juce17DirectoryIteratorELN9__gnu_cxx12_Lock_policyE2EE14_M_get_deleterERKSt9type_info,comdat
	.align 2
	.p2align 4
	.weak	_ZNSt15_Sp_counted_ptrIPN4juce17DirectoryIteratorELN9__gnu_cxx12_Lock_policyE2EE14_M_get_deleterERKSt9type_info
	.type	_ZNSt15_Sp_counted_ptrIPN4juce17DirectoryIteratorELN9__gnu_cxx12_Lock_policyE2EE14_M_get_deleterERKSt9type_info, @function
_ZNSt15_Sp_counted_ptrIPN4juce17DirectoryIteratorELN9__gnu_cxx12_Lock_policyE2EE14_M_get_deleterERKSt9type_info:
.LFB21490:
	.cfi_startproc
	xorl	%eax, %eax
	ret
	.cfi_endproc
.LFE21490:
	.size	_ZNSt15_Sp_counted_ptrIPN4juce17DirectoryIteratorELN9__gnu_cxx12_Lock_policyE2EE14_M_get_deleterERKSt9type_info, .-_ZNSt15_Sp_counted_ptrIPN4juce17DirectoryIteratorELN9__gnu_cxx12_Lock_policyE2EE14_M_get_deleterERKSt9type_info
	.section	.text._ZNSt19_Sp_counted_deleterIPN4juce23AndroidDocumentIterator5PimplESt14default_deleteIS2_ESaIvELN9__gnu_cxx12_Lock_policyE2EED2Ev,"axG",@progbits,_ZNSt19_Sp_counted_deleterIPN4juce23AndroidDocumentIterator5PimplESt14default_deleteIS2_ESaIvELN9__gnu_cxx12_Lock_policyE2EED5Ev,comdat
	.align 2
	.p2align 4
	.weak	_ZNSt19_Sp_counted_deleterIPN4juce23AndroidDocumentIterator5PimplESt14default_deleteIS2_ESaIvELN9__gnu_cxx12_Lock_policyE2EED2Ev
	.type	_ZNSt19_Sp_counted_deleterIPN4juce23AndroidDocumentIterator5PimplESt14default_deleteIS2_ESaIvELN9__gnu_cxx12_Lock_policyE2EED2Ev, @function
_ZNSt19_Sp_counted_deleterIPN4juce23AndroidDocumentIterator5PimplESt14default_deleteIS2_ESaIvELN9__gnu_cxx12_Lock_policyE2EED2Ev:
.LFB21506:
	.cfi_startproc
	ret
	.cfi_endproc
.LFE21506:
	.size	_ZNSt19_Sp_counted_deleterIPN4juce23AndroidDocumentIterator5PimplESt14default_deleteIS2_ESaIvELN9__gnu_cxx12_Lock_policyE2EED2Ev, .-_ZNSt19_Sp_counted_deleterIPN4juce23AndroidDocumentIterator5PimplESt14default_deleteIS2_ESaIvELN9__gnu_cxx12_Lock_policyE2EED2Ev
	.weak	_ZNSt19_Sp_counted_deleterIPN4juce23AndroidDocumentIterator5PimplESt14default_deleteIS2_ESaIvELN9__gnu_cxx12_Lock_policyE2EED1Ev
	.set	_ZNSt19_Sp_counted_deleterIPN4juce23AndroidDocumentIterator5PimplESt14default_deleteIS2_ESaIvELN9__gnu_cxx12_Lock_policyE2EED1Ev,_ZNSt19_Sp_counted_deleterIPN4juce23AndroidDocumentIterator5PimplESt14default_deleteIS2_ESaIvELN9__gnu_cxx12_Lock_policyE2EED2Ev
	.section	.text._ZNSt19_Sp_counted_deleterIPN4juce23AndroidDocumentIterator5PimplESt14default_deleteIS2_ESaIvELN9__gnu_cxx12_Lock_policyE2EE10_M_disposeEv,"axG",@progbits,_ZNSt19_Sp_counted_deleterIPN4juce23AndroidDocumentIterator5PimplESt14default_deleteIS2_ESaIvELN9__gnu_cxx12_Lock_policyE2EE10_M_disposeEv,comdat
	.align 2
	.p2align 4
	.weak	_ZNSt19_Sp_counted_deleterIPN4juce23AndroidDocumentIterator5PimplESt14default_deleteIS2_ESaIvELN9__gnu_cxx12_Lock_policyE2EE10_M_disposeEv
	.type	_ZNSt19_Sp_counted_deleterIPN4juce23AndroidDocumentIterator5PimplESt14default_deleteIS2_ESaIvELN9__gnu_cxx12_Lock_policyE2EE10_M_disposeEv, @function
_ZNSt19_Sp_counted_deleterIPN4juce23AndroidDocumentIterator5PimplESt14default_deleteIS2_ESaIvELN9__gnu_cxx12_Lock_policyE2EE10_M_disposeEv:
.LFB21509:
	.cfi_startproc
	movq	16(%rdi), %rdi
	testq	%rdi, %rdi
	je	.L537
	movq	(%rdi), %rax
	jmp	*8(%rax)
	.p2align 4,,10
	.p2align 3
.L537:
	ret
	.cfi_endproc
.LFE21509:
	.size	_ZNSt19_Sp_counted_deleterIPN4juce23AndroidDocumentIterator5PimplESt14default_deleteIS2_ESaIvELN9__gnu_cxx12_Lock_policyE2EE10_M_disposeEv, .-_ZNSt19_Sp_counted_deleterIPN4juce23AndroidDocumentIterator5PimplESt14default_deleteIS2_ESaIvELN9__gnu_cxx12_Lock_policyE2EE10_M_disposeEv
	.section	.text._ZN4juce6AtomicIjED2Ev,"axG",@progbits,_ZN4juce6AtomicIjED5Ev,comdat
	.align 2
	.p2align 4
	.weak	_ZN4juce6AtomicIjED2Ev
	.type	_ZN4juce6AtomicIjED2Ev, @function
_ZN4juce6AtomicIjED2Ev:
.LFB21524:
	.cfi_startproc
	ret
	.cfi_endproc
.LFE21524:
	.size	_ZN4juce6AtomicIjED2Ev, .-_ZN4juce6AtomicIjED2Ev
	.weak	_ZN4juce6AtomicIjED1Ev
	.set	_ZN4juce6AtomicIjED1Ev,_ZN4juce6AtomicIjED2Ev
	.text
	.p2align 4
	.globl	_ZN4juce13zlibNamespace6zcfreeEPvS1_
	.type	_ZN4juce13zlibNamespace6zcfreeEPvS1_, @function
_ZN4juce13zlibNamespace6zcfreeEPvS1_:
.LFB13427:
	.cfi_startproc
	movq	%rsi, %rdi
	jmp	free@PLT
	.cfi_endproc
.LFE13427:
	.size	_ZN4juce13zlibNamespace6zcfreeEPvS1_, .-_ZN4juce13zlibNamespace6zcfreeEPvS1_
	.align 2
	.p2align 4
	.globl	_ZN4juce17MemoryInputStreamD2Ev
	.type	_ZN4juce17MemoryInputStreamD2Ev, @function
_ZN4juce17MemoryInputStreamD2Ev:
.LFB11579:
	.cfi_startproc
	movq	32(%rdi), %rdi
	jmp	free@PLT
	.cfi_endproc
.LFE11579:
	.size	_ZN4juce17MemoryInputStreamD2Ev, .-_ZN4juce17MemoryInputStreamD2Ev
	.globl	_ZN4juce17MemoryInputStreamD1Ev
	.set	_ZN4juce17MemoryInputStreamD1Ev,_ZN4juce17MemoryInputStreamD2Ev
	.section	.text._ZN4juce5ArrayIPNS_8UnitTestENS_20DummyCriticalSectionELi0EED2Ev,"axG",@progbits,_ZN4juce5ArrayIPNS_8UnitTestENS_20DummyCriticalSectionELi0EED5Ev,comdat
	.align 2
	.p2align 4
	.weak	_ZN4juce5ArrayIPNS_8UnitTestENS_20DummyCriticalSectionELi0EED2Ev
	.type	_ZN4juce5ArrayIPNS_8UnitTestENS_20DummyCriticalSectionELi0EED2Ev, @function
_ZN4juce5ArrayIPNS_8UnitTestENS_20DummyCriticalSectionELi0EED2Ev:
.LFB12747:
	.cfi_startproc
	movq	(%rdi), %rdi
	jmp	free@PLT
	.cfi_endproc
.LFE12747:
	.size	_ZN4juce5ArrayIPNS_8UnitTestENS_20DummyCriticalSectionELi0EED2Ev, .-_ZN4juce5ArrayIPNS_8UnitTestENS_20DummyCriticalSectionELi0EED2Ev
	.weak	_ZN4juce5ArrayIPNS_8UnitTestENS_20DummyCriticalSectionELi0EED1Ev
	.set	_ZN4juce5ArrayIPNS_8UnitTestENS_20DummyCriticalSectionELi0EED1Ev,_ZN4juce5ArrayIPNS_8UnitTestENS_20DummyCriticalSectionELi0EED2Ev
	.text
	.p2align 4
	.globl	_ZN4juce13zlibNamespace7zcallocEPvjj
	.type	_ZN4juce13zlibNamespace7zcallocEPvjj, @function
_ZN4juce13zlibNamespace7zcallocEPvjj:
.LFB13426:
	.cfi_startproc
	movl	%esi, %edi
	imull	%edx, %edi
	jmp	malloc@PLT
	.cfi_endproc
.LFE13426:
	.size	_ZN4juce13zlibNamespace7zcallocEPvjj, .-_ZN4juce13zlibNamespace7zcallocEPvjj
	.section	.text.unlikely,"ax",@progbits
	.align 2
.LCOLDB4:
	.text
.LHOTB4:
	.align 2
	.p2align 4
	.globl	_ZN4juce11InputStream13skipNextBytesEx
	.type	_ZN4juce11InputStream13skipNextBytesEx, @function
_ZN4juce11InputStream13skipNextBytesEx:
.LFB11568:
	.cfi_startproc
	.cfi_personality 0x9b,DW.ref.__gxx_personality_v0
	.cfi_lsda 0x1b,.LLSDA11568
	testq	%rsi, %rsi
	jg	.L555
	ret
	.p2align 4,,10
	.p2align 3
.L555:
	pushq	%r13
	.cfi_def_cfa_offset 16
	.cfi_offset 13, -16
	pushq	%r12
	.cfi_def_cfa_offset 24
	.cfi_offset 12, -24
	movl	$16384, %r12d
	pushq	%rbp
	.cfi_def_cfa_offset 32
	.cfi_offset 6, -32
	movq	%rdi, %rbp
	pushq	%rbx
	.cfi_def_cfa_offset 40
	.cfi_offset 3, -40
	movq	%rsi, %rbx
	subq	$8, %rsp
	.cfi_def_cfa_offset 48
	cmpq	%r12, %rsi
	cmovle	%rsi, %r12
	movq	%r12, %rdi
	call	malloc@PLT
	movq	%rax, %r13
	.p2align 4
	.p2align 3
.L546:
	movq	0(%rbp), %rax
	movq	%rbp, %rdi
.LEHB0:
	call	*24(%rax)
	testb	%al, %al
	jne	.L547
	cmpq	%rbx, %r12
	movq	%rbx, %rcx
	movq	0(%rbp), %rax
	movq	%r13, %rsi
	cmovle	%r12, %rcx
	movq	%rbp, %rdi
	movq	%rcx, %rdx
	call	*32(%rax)
.LEHE0:
	cltq
	subq	%rax, %rbx
	testq	%rbx, %rbx
	jg	.L546
.L547:
	addq	$8, %rsp
	.cfi_remember_state
	.cfi_def_cfa_offset 40
	movq	%r13, %rdi
	popq	%rbx
	.cfi_restore 3
	.cfi_def_cfa_offset 32
	popq	%rbp
	.cfi_restore 6
	.cfi_def_cfa_offset 24
	popq	%r12
	.cfi_restore 12
	.cfi_def_cfa_offset 16
	popq	%r13
	.cfi_restore 13
	.cfi_def_cfa_offset 8
.LEHB1:
	jmp	free@PLT
.LEHE1:
.L550:
	.cfi_restore_state
	movq	%rax, %rbx
	jmp	.L549
	.section	.gcc_except_table
.LLSDA11568:
	.byte	0xff
	.byte	0xff
	.byte	0x1
	.uleb128 .LLSDACSE11568-.LLSDACSB11568
.LLSDACSB11568:
	.uleb128 .LEHB0-.LFB11568
	.uleb128 .LEHE0-.LEHB0
	.uleb128 .L550-.LFB11568
	.uleb128 0
	.uleb128 .LEHB1-.LFB11568
	.uleb128 .LEHE1-.LEHB1
	.uleb128 0
	.uleb128 0
.LLSDACSE11568:
	.text
	.cfi_endproc
	.section	.text.unlikely
	.cfi_startproc
	.cfi_personality 0x9b,DW.ref.__gxx_personality_v0
	.cfi_lsda 0x1b,.LLSDAC11568
	.type	_ZN4juce11InputStream13skipNextBytesEx.cold, @function
_ZN4juce11InputStream13skipNextBytesEx.cold:
.LFSB11568:
.L549:
	.cfi_def_cfa_offset 48
	.cfi_offset 3, -40
	.cfi_offset 6, -32
	.cfi_offset 12, -24
	.cfi_offset 13, -16
	movq	%r13, %rdi
	call	free@PLT
	movq	%rbx, %rdi
.LEHB2:
	call	_Unwind_Resume@PLT
.LEHE2:
	.cfi_endproc
.LFE11568:
	.section	.gcc_except_table
.LLSDAC11568:
	.byte	0xff
	.byte	0xff
	.byte	0x1
	.uleb128 .LLSDACSEC11568-.LLSDACSBC11568
.LLSDACSBC11568:
	.uleb128 .LEHB2-.LCOLDB4
	.uleb128 .LEHE2-.LEHB2
	.uleb128 0
	.uleb128 0
.LLSDACSEC11568:
	.section	.text.unlikely
	.text
	.size	_ZN4juce11InputStream13skipNextBytesEx, .-_ZN4juce11InputStream13skipNextBytesEx
	.section	.text.unlikely
	.size	_ZN4juce11InputStream13skipNextBytesEx.cold, .-_ZN4juce11InputStream13skipNextBytesEx.cold
.LCOLDE4:
	.text
.LHOTE4:
	.align 2
	.p2align 4
	.globl	_ZN4juce10Expression5ScopeD0Ev
	.type	_ZN4juce10Expression5ScopeD0Ev, @function
_ZN4juce10Expression5ScopeD0Ev:
.LFB10901:
	.cfi_startproc
	movl	$8, %esi
	jmp	_ZdlPvm@PLT
	.cfi_endproc
.LFE10901:
	.size	_ZN4juce10Expression5ScopeD0Ev, .-_ZN4juce10Expression5ScopeD0Ev
	.section	.text._ZN4juce14WebInputStream8ListenerD0Ev,"axG",@progbits,_ZN4juce14WebInputStream8ListenerD5Ev,comdat
	.align 2
	.p2align 4
	.weak	_ZN4juce14WebInputStream8ListenerD0Ev
	.type	_ZN4juce14WebInputStream8ListenerD0Ev, @function
_ZN4juce14WebInputStream8ListenerD0Ev:
.LFB14262:
	.cfi_startproc
	movl	$8, %esi
	jmp	_ZdlPvm@PLT
	.cfi_endproc
.LFE14262:
	.size	_ZN4juce14WebInputStream8ListenerD0Ev, .-_ZN4juce14WebInputStream8ListenerD0Ev
	.text
	.align 2
	.p2align 4
	.type	_ZZNK4juce3URL17createInputStreamERKNS0_18InputStreamOptionsEEN22ProgressCallbackCallerD0Ev, @function
_ZZNK4juce3URL17createInputStreamERKNS0_18InputStreamOptionsEEN22ProgressCallbackCallerD0Ev:
.LFB18203:
	.cfi_startproc
	.cfi_personality 0x9b,DW.ref.__gxx_personality_v0
	.cfi_lsda 0x1b,.LLSDA18203
	leaq	16+_ZTVZNK4juce3URL17createInputStreamERKNS0_18InputStreamOptionsEE22ProgressCallbackCaller(%rip), %rax
	pushq	%rbx
	.cfi_def_cfa_offset 16
	.cfi_offset 3, -16
	movq	%rdi, %rbx
	movq	%rax, (%rdi)
	movq	24(%rdi), %rax
	testq	%rax, %rax
	je	.L559
	leaq	8(%rdi), %rdi
	movl	$3, %edx
	movq	%rdi, %rsi
	call	*%rax
.L559:
	movq	%rbx, %rdi
	movl	$40, %esi
	popq	%rbx
	.cfi_def_cfa_offset 8
.LEHB3:
	jmp	_ZdlPvm@PLT
.LEHE3:
	.cfi_endproc
.LFE18203:
	.section	.gcc_except_table
.LLSDA18203:
	.byte	0xff
	.byte	0xff
	.byte	0x1
	.uleb128 .LLSDACSE18203-.LLSDACSB18203
.LLSDACSB18203:
	.uleb128 .LEHB3-.LFB18203
	.uleb128 .LEHE3-.LEHB3
	.uleb128 0
	.uleb128 0
.LLSDACSE18203:
	.text
	.size	_ZZNK4juce3URL17createInputStreamERKNS0_18InputStreamOptionsEEN22ProgressCallbackCallerD0Ev, .-_ZZNK4juce3URL17createInputStreamERKNS0_18InputStreamOptionsEEN22ProgressCallbackCallerD0Ev
	.section	.text._ZN4juce10Expression7Helpers8ConstantD0Ev,"axG",@progbits,_ZN4juce10Expression7Helpers8ConstantD5Ev,comdat
	.align 2
	.p2align 4
	.weak	_ZN4juce10Expression7Helpers8ConstantD0Ev
	.type	_ZN4juce10Expression7Helpers8ConstantD0Ev, @function
_ZN4juce10Expression7Helpers8ConstantD0Ev:
.LFB21450:
	.cfi_startproc
	movl	$32, %esi
	jmp	_ZdlPvm@PLT
	.cfi_endproc
.LFE21450:
	.size	_ZN4juce10Expression7Helpers8ConstantD0Ev, .-_ZN4juce10Expression7Helpers8ConstantD0Ev
	.section	.text._ZN4juce10Expression7Helpers18SymbolCheckVisitorD0Ev,"axG",@progbits,_ZN4juce10Expression7Helpers18SymbolCheckVisitorD5Ev,comdat
	.align 2
	.p2align 4
	.weak	_ZN4juce10Expression7Helpers18SymbolCheckVisitorD0Ev
	.type	_ZN4juce10Expression7Helpers18SymbolCheckVisitorD0Ev, @function
_ZN4juce10Expression7Helpers18SymbolCheckVisitorD0Ev:
.LFB10877:
	.cfi_startproc
	movl	$24, %esi
	jmp	_ZdlPvm@PLT
	.cfi_endproc
.LFE10877:
	.size	_ZN4juce10Expression7Helpers18SymbolCheckVisitorD0Ev, .-_ZN4juce10Expression7Helpers18SymbolCheckVisitorD0Ev
	.section	.text._ZN4juce10Expression7Helpers17SymbolListVisitorD0Ev,"axG",@progbits,_ZN4juce10Expression7Helpers17SymbolListVisitorD5Ev,comdat
	.align 2
	.p2align 4
	.weak	_ZN4juce10Expression7Helpers17SymbolListVisitorD0Ev
	.type	_ZN4juce10Expression7Helpers17SymbolListVisitorD0Ev, @function
_ZN4juce10Expression7Helpers17SymbolListVisitorD0Ev:
.LFB10882:
	.cfi_startproc
	movl	$16, %esi
	jmp	_ZdlPvm@PLT
	.cfi_endproc
.LFE10882:
	.size	_ZN4juce10Expression7Helpers17SymbolListVisitorD0Ev, .-_ZN4juce10Expression7Helpers17SymbolListVisitorD0Ev
	.section	.text._ZN4juce3var11VariantType13methodCleanUpERNS0_10ValueUnionE,"axG",@progbits,_ZN4juce3var11VariantType13methodCleanUpERNS0_10ValueUnionE,comdat
	.p2align 4
	.weak	_ZN4juce3var11VariantType13methodCleanUpERNS0_10ValueUnionE
	.type	_ZN4juce3var11VariantType13methodCleanUpERNS0_10ValueUnionE, @function
_ZN4juce3var11VariantType13methodCleanUpERNS0_10ValueUnionE:
.LFB12918:
	.cfi_startproc
	.cfi_personality 0x9b,DW.ref.__gxx_personality_v0
	.cfi_lsda 0x1b,.LLSDA12918
	movq	(%rdi), %rdi
	testq	%rdi, %rdi
	je	.L567
	movq	16(%rdi), %rax
	testq	%rax, %rax
	je	.L574
	subq	$24, %rsp
	.cfi_def_cfa_offset 32
	movq	%rdi, %rsi
	movl	$3, %edx
	movq	%rdi, 8(%rsp)
	call	*%rax
	movq	8(%rsp), %rdi
	movl	$32, %esi
	addq	$24, %rsp
	.cfi_def_cfa_offset 8
.LEHB4:
	jmp	_ZdlPvm@PLT
	.p2align 4,,10
	.p2align 3
.L574:
	movl	$32, %esi
	jmp	_ZdlPvm@PLT
.LEHE4:
	.p2align 4,,10
	.p2align 3
.L567:
	ret
	.cfi_endproc
.LFE12918:
	.section	.gcc_except_table._ZN4juce3var11VariantType13methodCleanUpERNS0_10ValueUnionE,"aG",@progbits,_ZN4juce3var11VariantType13methodCleanUpERNS0_10ValueUnionE,comdat
.LLSDA12918:
	.byte	0xff
	.byte	0xff
	.byte	0x1
	.uleb128 .LLSDACSE12918-.LLSDACSB12918
.LLSDACSB12918:
	.uleb128 .LEHB4-.LFB12918
	.uleb128 .LEHE4-.LEHB4
	.uleb128 0
	.uleb128 0
.LLSDACSE12918:
	.section	.text._ZN4juce3var11VariantType13methodCleanUpERNS0_10ValueUnionE,"axG",@progbits,_ZN4juce3var11VariantType13methodCleanUpERNS0_10ValueUnionE,comdat
	.size	_ZN4juce3var11VariantType13methodCleanUpERNS0_10ValueUnionE, .-_ZN4juce3var11VariantType13methodCleanUpERNS0_10ValueUnionE
	.text
	.align 2
	.p2align 4
	.globl	_ZN4juce17MemoryInputStreamD0Ev
	.type	_ZN4juce17MemoryInputStreamD0Ev, @function
_ZN4juce17MemoryInputStreamD0Ev:
.LFB11581:
	.cfi_startproc
	pushq	%rbx
	.cfi_def_cfa_offset 16
	.cfi_offset 3, -16
	movq	%rdi, %rbx
	movq	32(%rdi), %rdi
	call	free@PLT
	movq	%rbx, %rdi
	movl	$48, %esi
	popq	%rbx
	.cfi_def_cfa_offset 8
	jmp	_ZdlPvm@PLT
	.cfi_endproc
.LFE11581:
	.size	_ZN4juce17MemoryInputStreamD0Ev, .-_ZN4juce17MemoryInputStreamD0Ev
	.section	.text._ZN4juce3var11VariantType13binaryCleanUpERNS0_10ValueUnionE,"axG",@progbits,_ZN4juce3var11VariantType13binaryCleanUpERNS0_10ValueUnionE,comdat
	.p2align 4
	.weak	_ZN4juce3var11VariantType13binaryCleanUpERNS0_10ValueUnionE
	.type	_ZN4juce3var11VariantType13binaryCleanUpERNS0_10ValueUnionE, @function
_ZN4juce3var11VariantType13binaryCleanUpERNS0_10ValueUnionE:
.LFB12909:
	.cfi_startproc
	movq	(%rdi), %rax
	testq	%rax, %rax
	je	.L579
	subq	$24, %rsp
	.cfi_def_cfa_offset 32
	movq	(%rax), %rdi
	movq	%rax, 8(%rsp)
	call	free@PLT
	movq	8(%rsp), %rdi
	movl	$16, %esi
	addq	$24, %rsp
	.cfi_def_cfa_offset 8
	jmp	_ZdlPvm@PLT
	.p2align 4,,10
	.p2align 3
.L579:
	ret
	.cfi_endproc
.LFE12909:
	.size	_ZN4juce3var11VariantType13binaryCleanUpERNS0_10ValueUnionE, .-_ZN4juce3var11VariantType13binaryCleanUpERNS0_10ValueUnionE
	.section	.text._ZNSt23_Sp_counted_ptr_inplaceISt6vectorIPN4juce12ListenerListINS1_6Thread8ListenerENS1_5ArrayIPS4_NS1_15CriticalSectionELi0EEEE8IteratorESaISB_EESaIvELN9__gnu_cxx12_Lock_policyE2EED0Ev,"axG",@progbits,_ZNSt23_Sp_counted_ptr_inplaceISt6vectorIPN4juce12ListenerListINS1_6Thread8ListenerENS1_5ArrayIPS4_NS1_15CriticalSectionELi0EEEE8IteratorESaISB_EESaIvELN9__gnu_cxx12_Lock_policyE2EED5Ev,comdat
	.align 2
	.p2align 4
	.weak	_ZNSt23_Sp_counted_ptr_inplaceISt6vectorIPN4juce12ListenerListINS1_6Thread8ListenerENS1_5ArrayIPS4_NS1_15CriticalSectionELi0EEEE8IteratorESaISB_EESaIvELN9__gnu_cxx12_Lock_policyE2EED0Ev
	.type	_ZNSt23_Sp_counted_ptr_inplaceISt6vectorIPN4juce12ListenerListINS1_6Thread8ListenerENS1_5ArrayIPS4_NS1_15CriticalSectionELi0EEEE8IteratorESaISB_EESaIvELN9__gnu_cxx12_Lock_policyE2EED0Ev, @function
_ZNSt23_Sp_counted_ptr_inplaceISt6vectorIPN4juce12ListenerListINS1_6Thread8ListenerENS1_5ArrayIPS4_NS1_15CriticalSectionELi0EEEE8IteratorESaISB_EESaIvELN9__gnu_cxx12_Lock_policyE2EED0Ev:
.LFB21470:
	.cfi_startproc
	movl	$40, %esi
	jmp	_ZdlPvm@PLT
	.cfi_endproc
.LFE21470:
	.size	_ZNSt23_Sp_counted_ptr_inplaceISt6vectorIPN4juce12ListenerListINS1_6Thread8ListenerENS1_5ArrayIPS4_NS1_15CriticalSectionELi0EEEE8IteratorESaISB_EESaIvELN9__gnu_cxx12_Lock_policyE2EED0Ev, .-_ZNSt23_Sp_counted_ptr_inplaceISt6vectorIPN4juce12ListenerListINS1_6Thread8ListenerENS1_5ArrayIPS4_NS1_15CriticalSectionELi0EEEE8IteratorESaISB_EESaIvELN9__gnu_cxx12_Lock_policyE2EED0Ev
	.section	.text._ZNSt23_Sp_counted_ptr_inplaceIN4juce5ArrayIPNS0_6Thread8ListenerENS0_15CriticalSectionELi0EEESaIvELN9__gnu_cxx12_Lock_policyE2EED0Ev,"axG",@progbits,_ZNSt23_Sp_counted_ptr_inplaceIN4juce5ArrayIPNS0_6Thread8ListenerENS0_15CriticalSectionELi0EEESaIvELN9__gnu_cxx12_Lock_policyE2EED5Ev,comdat
	.align 2
	.p2align 4
	.weak	_ZNSt23_Sp_counted_ptr_inplaceIN4juce5ArrayIPNS0_6Thread8ListenerENS0_15CriticalSectionELi0EEESaIvELN9__gnu_cxx12_Lock_policyE2EED0Ev
	.type	_ZNSt23_Sp_counted_ptr_inplaceIN4juce5ArrayIPNS0_6Thread8ListenerENS0_15CriticalSectionELi0EEESaIvELN9__gnu_cxx12_Lock_policyE2EED0Ev, @function
_ZNSt23_Sp_counted_ptr_inplaceIN4juce5ArrayIPNS0_6Thread8ListenerENS0_15CriticalSectionELi0EEESaIvELN9__gnu_cxx12_Lock_policyE2EED0Ev:
.LFB21477:
	.cfi_startproc
	movl	$72, %esi
	jmp	_ZdlPvm@PLT
	.cfi_endproc
.LFE21477:
	.size	_ZNSt23_Sp_counted_ptr_inplaceIN4juce5ArrayIPNS0_6Thread8ListenerENS0_15CriticalSectionELi0EEESaIvELN9__gnu_cxx12_Lock_policyE2EED0Ev, .-_ZNSt23_Sp_counted_ptr_inplaceIN4juce5ArrayIPNS0_6Thread8ListenerENS0_15CriticalSectionELi0EEESaIvELN9__gnu_cxx12_Lock_policyE2EED0Ev
	.section	.text._ZNSt23_Sp_counted_ptr_inplaceIN4juce20GenericPlatformTimer5TimerESaIvELN9__gnu_cxx12_Lock_policyE2EED0Ev,"axG",@progbits,_ZNSt23_Sp_counted_ptr_inplaceIN4juce20GenericPlatformTimer5TimerESaIvELN9__gnu_cxx12_Lock_policyE2EED5Ev,comdat
	.align 2
	.p2align 4
	.weak	_ZNSt23_Sp_counted_ptr_inplaceIN4juce20GenericPlatformTimer5TimerESaIvELN9__gnu_cxx12_Lock_policyE2EED0Ev
	.type	_ZNSt23_Sp_counted_ptr_inplaceIN4juce20GenericPlatformTimer5TimerESaIvELN9__gnu_cxx12_Lock_policyE2EED0Ev, @function
_ZNSt23_Sp_counted_ptr_inplaceIN4juce20GenericPlatformTimer5TimerESaIvELN9__gnu_cxx12_Lock_policyE2EED0Ev:
.LFB21484:
	.cfi_startproc
	movl	$144, %esi
	jmp	_ZdlPvm@PLT
	.cfi_endproc
.LFE21484:
	.size	_ZNSt23_Sp_counted_ptr_inplaceIN4juce20GenericPlatformTimer5TimerESaIvELN9__gnu_cxx12_Lock_policyE2EED0Ev, .-_ZNSt23_Sp_counted_ptr_inplaceIN4juce20GenericPlatformTimer5TimerESaIvELN9__gnu_cxx12_Lock_policyE2EED0Ev
	.section	.text._ZNSt15_Sp_counted_ptrIPN4juce17DirectoryIteratorELN9__gnu_cxx12_Lock_policyE2EED0Ev,"axG",@progbits,_ZNSt15_Sp_counted_ptrIPN4juce17DirectoryIteratorELN9__gnu_cxx12_Lock_policyE2EED5Ev,comdat
	.align 2
	.p2align 4
	.weak	_ZNSt15_Sp_counted_ptrIPN4juce17DirectoryIteratorELN9__gnu_cxx12_Lock_policyE2EED0Ev
	.type	_ZNSt15_Sp_counted_ptrIPN4juce17DirectoryIteratorELN9__gnu_cxx12_Lock_policyE2EED0Ev, @function
_ZNSt15_Sp_counted_ptrIPN4juce17DirectoryIteratorELN9__gnu_cxx12_Lock_policyE2EED0Ev:
.LFB21402:
	.cfi_startproc
	movl	$24, %esi
	jmp	_ZdlPvm@PLT
	.cfi_endproc
.LFE21402:
	.size	_ZNSt15_Sp_counted_ptrIPN4juce17DirectoryIteratorELN9__gnu_cxx12_Lock_policyE2EED0Ev, .-_ZNSt15_Sp_counted_ptrIPN4juce17DirectoryIteratorELN9__gnu_cxx12_Lock_policyE2EED0Ev
	.section	.text._ZNSt15_Sp_counted_ptrIPN4juce17DirectoryIteratorELN9__gnu_cxx12_Lock_policyE2EE10_M_destroyEv,"axG",@progbits,_ZNSt15_Sp_counted_ptrIPN4juce17DirectoryIteratorELN9__gnu_cxx12_Lock_policyE2EE10_M_destroyEv,comdat
	.align 2
	.p2align 4
	.weak	_ZNSt15_Sp_counted_ptrIPN4juce17DirectoryIteratorELN9__gnu_cxx12_Lock_policyE2EE10_M_destroyEv
	.type	_ZNSt15_Sp_counted_ptrIPN4juce17DirectoryIteratorELN9__gnu_cxx12_Lock_policyE2EE10_M_destroyEv, @function
_ZNSt15_Sp_counted_ptrIPN4juce17DirectoryIteratorELN9__gnu_cxx12_Lock_policyE2EE10_M_destroyEv:
.LFB21489:
	.cfi_startproc
	movl	$24, %esi
	jmp	_ZdlPvm@PLT
	.cfi_endproc
.LFE21489:
	.size	_ZNSt15_Sp_counted_ptrIPN4juce17DirectoryIteratorELN9__gnu_cxx12_Lock_policyE2EE10_M_destroyEv, .-_ZNSt15_Sp_counted_ptrIPN4juce17DirectoryIteratorELN9__gnu_cxx12_Lock_policyE2EE10_M_destroyEv
	.section	.text._ZNSt19_Sp_counted_deleterIPN4juce23AndroidDocumentIterator5PimplESt14default_deleteIS2_ESaIvELN9__gnu_cxx12_Lock_policyE2EED0Ev,"axG",@progbits,_ZNSt19_Sp_counted_deleterIPN4juce23AndroidDocumentIterator5PimplESt14default_deleteIS2_ESaIvELN9__gnu_cxx12_Lock_policyE2EED5Ev,comdat
	.align 2
	.p2align 4
	.weak	_ZNSt19_Sp_counted_deleterIPN4juce23AndroidDocumentIterator5PimplESt14default_deleteIS2_ESaIvELN9__gnu_cxx12_Lock_policyE2EED0Ev
	.type	_ZNSt19_Sp_counted_deleterIPN4juce23AndroidDocumentIterator5PimplESt14default_deleteIS2_ESaIvELN9__gnu_cxx12_Lock_policyE2EED0Ev, @function
_ZNSt19_Sp_counted_deleterIPN4juce23AndroidDocumentIterator5PimplESt14default_deleteIS2_ESaIvELN9__gnu_cxx12_Lock_policyE2EED0Ev:
.LFB21508:
	.cfi_startproc
	movl	$24, %esi
	jmp	_ZdlPvm@PLT
	.cfi_endproc
.LFE21508:
	.size	_ZNSt19_Sp_counted_deleterIPN4juce23AndroidDocumentIterator5PimplESt14default_deleteIS2_ESaIvELN9__gnu_cxx12_Lock_policyE2EED0Ev, .-_ZNSt19_Sp_counted_deleterIPN4juce23AndroidDocumentIterator5PimplESt14default_deleteIS2_ESaIvELN9__gnu_cxx12_Lock_policyE2EED0Ev
	.section	.text._ZN4juce10Expression7Helpers11DotOperator21SymbolVisitingVisitorD0Ev,"axG",@progbits,_ZN4juce10Expression7Helpers11DotOperator21SymbolVisitingVisitorD5Ev,comdat
	.align 2
	.p2align 4
	.weak	_ZN4juce10Expression7Helpers11DotOperator21SymbolVisitingVisitorD0Ev
	.type	_ZN4juce10Expression7Helpers11DotOperator21SymbolVisitingVisitorD0Ev, @function
_ZN4juce10Expression7Helpers11DotOperator21SymbolVisitingVisitorD0Ev:
.LFB10727:
	.cfi_startproc
	leaq	16+_ZTVN4juce10Expression7Helpers11DotOperator21SymbolVisitingVisitorE(%rip), %rcx
	movq	%rdi, %rax
	movq	%rcx, (%rdi)
	movq	8(%rdi), %rdi
	testq	%rdi, %rdi
	je	.L596
	subl	$1, 8(%rdi)
	jne	.L596
	subq	$24, %rsp
	.cfi_def_cfa_offset 32
	movq	(%rdi), %rdx
	movq	%rax, 8(%rsp)
	call	*8(%rdx)
	movq	8(%rsp), %rax
	movl	$32, %esi
	addq	$24, %rsp
	.cfi_def_cfa_offset 8
	movq	%rax, %rdi
	jmp	_ZdlPvm@PLT
	.p2align 4,,10
	.p2align 3
.L596:
	movl	$32, %esi
	movq	%rax, %rdi
	jmp	_ZdlPvm@PLT
	.cfi_endproc
.LFE10727:
	.size	_ZN4juce10Expression7Helpers11DotOperator21SymbolVisitingVisitorD0Ev, .-_ZN4juce10Expression7Helpers11DotOperator21SymbolVisitingVisitorD0Ev
	.section	.text._ZN4juce10Expression7Helpers6NegateD0Ev,"axG",@progbits,_ZN4juce10Expression7Helpers6NegateD5Ev,comdat
	.align 2
	.p2align 4
	.weak	_ZN4juce10Expression7Helpers6NegateD0Ev
	.type	_ZN4juce10Expression7Helpers6NegateD0Ev, @function
_ZN4juce10Expression7Helpers6NegateD0Ev:
.LFB21434:
	.cfi_startproc
	leaq	16+_ZTVN4juce10Expression7Helpers6NegateE(%rip), %rcx
	movq	%rdi, %rax
	movq	%rcx, (%rdi)
	movq	16(%rdi), %rdi
	testq	%rdi, %rdi
	je	.L605
	subl	$1, 8(%rdi)
	jne	.L605
	subq	$24, %rsp
	.cfi_def_cfa_offset 32
	movq	(%rdi), %rdx
	movq	%rax, 8(%rsp)
	call	*8(%rdx)
	movq	8(%rsp), %rax
	movl	$24, %esi
	addq	$24, %rsp
	.cfi_def_cfa_offset 8
	movq	%rax, %rdi
	jmp	_ZdlPvm@PLT
	.p2align 4,,10
	.p2align 3
.L605:
	movl	$24, %esi
	movq	%rax, %rdi
	jmp	_ZdlPvm@PLT
	.cfi_endproc
.LFE21434:
	.size	_ZN4juce10Expression7Helpers6NegateD0Ev, .-_ZN4juce10Expression7Helpers6NegateD0Ev
	.section	.text._ZNSt23_Sp_counted_ptr_inplaceISt6vectorIPN4juce12ListenerListINS1_6Thread8ListenerENS1_5ArrayIPS4_NS1_15CriticalSectionELi0EEEE8IteratorESaISB_EESaIvELN9__gnu_cxx12_Lock_policyE2EE10_M_destroyEv,"axG",@progbits,_ZNSt23_Sp_counted_ptr_inplaceISt6vectorIPN4juce12ListenerListINS1_6Thread8ListenerENS1_5ArrayIPS4_NS1_15CriticalSectionELi0EEEE8IteratorESaISB_EESaIvELN9__gnu_cxx12_Lock_policyE2EE10_M_destroyEv,comdat
	.align 2
	.p2align 4
	.weak	_ZNSt23_Sp_counted_ptr_inplaceISt6vectorIPN4juce12ListenerListINS1_6Thread8ListenerENS1_5ArrayIPS4_NS1_15CriticalSectionELi0EEEE8IteratorESaISB_EESaIvELN9__gnu_cxx12_Lock_policyE2EE10_M_destroyEv
	.type	_ZNSt23_Sp_counted_ptr_inplaceISt6vectorIPN4juce12ListenerListINS1_6Thread8ListenerENS1_5ArrayIPS4_NS1_15CriticalSectionELi0EEEE8IteratorESaISB_EESaIvELN9__gnu_cxx12_Lock_policyE2EE10_M_destroyEv, @function
_ZNSt23_Sp_counted_ptr_inplaceISt6vectorIPN4juce12ListenerListINS1_6Thread8ListenerENS1_5ArrayIPS4_NS1_15CriticalSectionELi0EEEE8IteratorESaISB_EESaIvELN9__gnu_cxx12_Lock_policyE2EE10_M_destroyEv:
.LFB21472:
	.cfi_startproc
	movl	$40, %esi
	jmp	_ZdlPvm@PLT
	.cfi_endproc
.LFE21472:
	.size	_ZNSt23_Sp_counted_ptr_inplaceISt6vectorIPN4juce12ListenerListINS1_6Thread8ListenerENS1_5ArrayIPS4_NS1_15CriticalSectionELi0EEEE8IteratorESaISB_EESaIvELN9__gnu_cxx12_Lock_policyE2EE10_M_destroyEv, .-_ZNSt23_Sp_counted_ptr_inplaceISt6vectorIPN4juce12ListenerListINS1_6Thread8ListenerENS1_5ArrayIPS4_NS1_15CriticalSectionELi0EEEE8IteratorESaISB_EESaIvELN9__gnu_cxx12_Lock_policyE2EE10_M_destroyEv
	.section	.text._ZNSt23_Sp_counted_ptr_inplaceIN4juce5ArrayIPNS0_6Thread8ListenerENS0_15CriticalSectionELi0EEESaIvELN9__gnu_cxx12_Lock_policyE2EE10_M_destroyEv,"axG",@progbits,_ZNSt23_Sp_counted_ptr_inplaceIN4juce5ArrayIPNS0_6Thread8ListenerENS0_15CriticalSectionELi0EEESaIvELN9__gnu_cxx12_Lock_policyE2EE10_M_destroyEv,comdat
	.align 2
	.p2align 4
	.weak	_ZNSt23_Sp_counted_ptr_inplaceIN4juce5ArrayIPNS0_6Thread8ListenerENS0_15CriticalSectionELi0EEESaIvELN9__gnu_cxx12_Lock_policyE2EE10_M_destroyEv
	.type	_ZNSt23_Sp_counted_ptr_inplaceIN4juce5ArrayIPNS0_6Thread8ListenerENS0_15CriticalSectionELi0EEESaIvELN9__gnu_cxx12_Lock_policyE2EE10_M_destroyEv, @function
_ZNSt23_Sp_counted_ptr_inplaceIN4juce5ArrayIPNS0_6Thread8ListenerENS0_15CriticalSectionELi0EEESaIvELN9__gnu_cxx12_Lock_policyE2EE10_M_destroyEv:
.LFB21479:
	.cfi_startproc
	movl	$72, %esi
	jmp	_ZdlPvm@PLT
	.cfi_endproc
.LFE21479:
	.size	_ZNSt23_Sp_counted_ptr_inplaceIN4juce5ArrayIPNS0_6Thread8ListenerENS0_15CriticalSectionELi0EEESaIvELN9__gnu_cxx12_Lock_policyE2EE10_M_destroyEv, .-_ZNSt23_Sp_counted_ptr_inplaceIN4juce5ArrayIPNS0_6Thread8ListenerENS0_15CriticalSectionELi0EEESaIvELN9__gnu_cxx12_Lock_policyE2EE10_M_destroyEv
	.section	.text._ZNSt23_Sp_counted_ptr_inplaceIN4juce20GenericPlatformTimer5TimerESaIvELN9__gnu_cxx12_Lock_policyE2EE10_M_destroyEv,"axG",@progbits,_ZNSt23_Sp_counted_ptr_inplaceIN4juce20GenericPlatformTimer5TimerESaIvELN9__gnu_cxx12_Lock_policyE2EE10_M_destroyEv,comdat
	.align 2
	.p2align 4
	.weak	_ZNSt23_Sp_counted_ptr_inplaceIN4juce20GenericPlatformTimer5TimerESaIvELN9__gnu_cxx12_Lock_policyE2EE10_M_destroyEv
	.type	_ZNSt23_Sp_counted_ptr_inplaceIN4juce20GenericPlatformTimer5TimerESaIvELN9__gnu_cxx12_Lock_policyE2EE10_M_destroyEv, @function
_ZNSt23_Sp_counted_ptr_inplaceIN4juce20GenericPlatformTimer5TimerESaIvELN9__gnu_cxx12_Lock_policyE2EE10_M_destroyEv:
.LFB21486:
	.cfi_startproc
	movl	$144, %esi
	jmp	_ZdlPvm@PLT
	.cfi_endproc
.LFE21486:
	.size	_ZNSt23_Sp_counted_ptr_inplaceIN4juce20GenericPlatformTimer5TimerESaIvELN9__gnu_cxx12_Lock_policyE2EE10_M_destroyEv, .-_ZNSt23_Sp_counted_ptr_inplaceIN4juce20GenericPlatformTimer5TimerESaIvELN9__gnu_cxx12_Lock_policyE2EE10_M_destroyEv
	.section	.text._ZNSt19_Sp_counted_deleterIPN4juce23AndroidDocumentIterator5PimplESt14default_deleteIS2_ESaIvELN9__gnu_cxx12_Lock_policyE2EE10_M_destroyEv,"axG",@progbits,_ZNSt19_Sp_counted_deleterIPN4juce23AndroidDocumentIterator5PimplESt14default_deleteIS2_ESaIvELN9__gnu_cxx12_Lock_policyE2EE10_M_destroyEv,comdat
	.align 2
	.p2align 4
	.weak	_ZNSt19_Sp_counted_deleterIPN4juce23AndroidDocumentIterator5PimplESt14default_deleteIS2_ESaIvELN9__gnu_cxx12_Lock_policyE2EE10_M_destroyEv
	.type	_ZNSt19_Sp_counted_deleterIPN4juce23AndroidDocumentIterator5PimplESt14default_deleteIS2_ESaIvELN9__gnu_cxx12_Lock_policyE2EE10_M_destroyEv, @function
_ZNSt19_Sp_counted_deleterIPN4juce23AndroidDocumentIterator5PimplESt14default_deleteIS2_ESaIvELN9__gnu_cxx12_Lock_policyE2EE10_M_destroyEv:
.LFB21510:
	.cfi_startproc
	movl	$24, %esi
	jmp	_ZdlPvm@PLT
	.cfi_endproc
.LFE21510:
	.size	_ZNSt19_Sp_counted_deleterIPN4juce23AndroidDocumentIterator5PimplESt14default_deleteIS2_ESaIvELN9__gnu_cxx12_Lock_policyE2EE10_M_destroyEv, .-_ZNSt19_Sp_counted_deleterIPN4juce23AndroidDocumentIterator5PimplESt14default_deleteIS2_ESaIvELN9__gnu_cxx12_Lock_policyE2EE10_M_destroyEv
	.section	.text._ZNK4juce10Expression7Helpers8Constant5cloneEv,"axG",@progbits,_ZNK4juce10Expression7Helpers8Constant5cloneEv,comdat
	.align 2
	.p2align 4
	.weak	_ZNK4juce10Expression7Helpers8Constant5cloneEv
	.type	_ZNK4juce10Expression7Helpers8Constant5cloneEv, @function
_ZNK4juce10Expression7Helpers8Constant5cloneEv:
.LFB10648:
	.cfi_startproc
	pushq	%rbx
	.cfi_def_cfa_offset 16
	.cfi_offset 3, -16
	movq	%rdi, %rbx
	movl	$32, %edi
	call	_Znwm@PLT
	movzbl	24(%rbx), %edx
	movsd	16(%rbx), %xmm0
	leaq	16+_ZTVN4juce10Expression7Helpers8ConstantE(%rip), %rcx
	movl	$0, 8(%rax)
	movq	%rcx, (%rax)
	movb	%dl, 24(%rax)
	movsd	%xmm0, 16(%rax)
	popq	%rbx
	.cfi_def_cfa_offset 8
	ret
	.cfi_endproc
.LFE10648:
	.size	_ZNK4juce10Expression7Helpers8Constant5cloneEv, .-_ZNK4juce10Expression7Helpers8Constant5cloneEv
	.section	.text._ZN4juce10Expression7Helpers8Constant7negatedEv,"axG",@progbits,_ZN4juce10Expression7Helpers8Constant7negatedEv,comdat
	.align 2
	.p2align 4
	.weak	_ZN4juce10Expression7Helpers8Constant7negatedEv
	.type	_ZN4juce10Expression7Helpers8Constant7negatedEv, @function
_ZN4juce10Expression7Helpers8Constant7negatedEv:
.LFB10651:
	.cfi_startproc
	pushq	%rbp
	.cfi_def_cfa_offset 16
	.cfi_offset 6, -16
	movq	%rsi, %rbp
	pushq	%rbx
	.cfi_def_cfa_offset 24
	.cfi_offset 3, -24
	movq	%rdi, %rbx
	movl	$32, %edi
	subq	$8, %rsp
	.cfi_def_cfa_offset 32
	call	_Znwm@PLT
	movzbl	24(%rbp), %edx
	movsd	16(%rbp), %xmm0
	leaq	16+_ZTVN4juce10Expression7Helpers8ConstantE(%rip), %rcx
	xorpd	.LC5(%rip), %xmm0
	movq	%rcx, (%rax)
	movb	%dl, 24(%rax)
	movq	%rax, (%rbx)
	movl	$1, 8(%rax)
	movsd	%xmm0, 16(%rax)
	addq	$8, %rsp
	.cfi_def_cfa_offset 24
	movq	%rbx, %rax
	popq	%rbx
	.cfi_def_cfa_offset 16
	popq	%rbp
	.cfi_def_cfa_offset 8
	ret
	.cfi_endproc
.LFE10651:
	.size	_ZN4juce10Expression7Helpers8Constant7negatedEv, .-_ZN4juce10Expression7Helpers8Constant7negatedEv
	.section	.text._ZNK4juce10Expression7Helpers8Subtract5cloneEv,"axG",@progbits,_ZNK4juce10Expression7Helpers8Subtract5cloneEv,comdat
	.align 2
	.p2align 4
	.weak	_ZNK4juce10Expression7Helpers8Subtract5cloneEv
	.type	_ZNK4juce10Expression7Helpers8Subtract5cloneEv, @function
_ZNK4juce10Expression7Helpers8Subtract5cloneEv:
.LFB10774:
	.cfi_startproc
	.cfi_personality 0x9b,DW.ref.__gxx_personality_v0
	.cfi_lsda 0x1b,.LLSDA10774
	pushq	%r12
	.cfi_def_cfa_offset 16
	.cfi_offset 12, -16
	movq	%rdi, %r12
	movl	$32, %edi
	pushq	%rbp
	.cfi_def_cfa_offset 24
	.cfi_offset 6, -24
	pushq	%rbx
	.cfi_def_cfa_offset 32
	.cfi_offset 3, -32
.LEHB5:
	call	_Znwm@PLT
.LEHE5:
	movq	24(%r12), %rdi
	movq	%rax, %rbp
	movq	(%rdi), %rax
.LEHB6:
	call	*24(%rax)
.LEHE6:
	movq	16(%r12), %rdi
	addl	$1, 8(%rax)
	movq	%rax, %rbx
	movq	(%rdi), %rax
.LEHB7:
	call	*24(%rax)
.LEHE7:
	addl	$1, 8(%rax)
	movl	8(%rbx), %edx
	leaq	16+_ZTVN4juce10Expression7Helpers8SubtractE(%rip), %rsi
	movl	$0, 8(%rbp)
	leal	1(%rdx), %ecx
	movq	%rax, 16(%rbp)
	movl	%ecx, 8(%rbx)
	movl	8(%rax), %ecx
	movq	%rbx, 24(%rbp)
	movq	%rsi, 0(%rbp)
	testl	%ecx, %ecx
	jne	.L617
	movq	(%rax), %rdx
	movq	%rax, %rdi
	call	*8(%rdx)
	movl	8(%rbx), %eax
	leal	-1(%rax), %edx
.L617:
	movl	%edx, 8(%rbx)
	testl	%edx, %edx
	jne	.L616
	movq	(%rbx), %rax
	movq	%rbx, %rdi
	call	*8(%rax)
.L616:
	movq	%rbp, %rax
	popq	%rbx
	.cfi_remember_state
	.cfi_def_cfa_offset 24
	popq	%rbp
	.cfi_def_cfa_offset 16
	popq	%r12
	.cfi_def_cfa_offset 8
	ret
.L622:
	.cfi_restore_state
	movq	%rax, %r12
	jmp	.L621
.L623:
	movq	%rax, %r12
.L619:
	subl	$1, 8(%rbx)
	jne	.L621
	movq	(%rbx), %rax
	movq	%rbx, %rdi
	call	*8(%rax)
.L621:
	movq	%rbp, %rdi
	movl	$32, %esi
	call	_ZdlPvm@PLT
	movq	%r12, %rdi
.LEHB8:
	call	_Unwind_Resume@PLT
.LEHE8:
	.cfi_endproc
.LFE10774:
	.section	.gcc_except_table._ZNK4juce10Expression7Helpers8Subtract5cloneEv,"aG",@progbits,_ZNK4juce10Expression7Helpers8Subtract5cloneEv,comdat
.LLSDA10774:
	.byte	0xff
	.byte	0xff
	.byte	0x1
	.uleb128 .LLSDACSE10774-.LLSDACSB10774
.LLSDACSB10774:
	.uleb128 .LEHB5-.LFB10774
	.uleb128 .LEHE5-.LEHB5
	.uleb128 0
	.uleb128 0
	.uleb128 .LEHB6-.LFB10774
	.uleb128 .LEHE6-.LEHB6
	.uleb128 .L622-.LFB10774
	.uleb128 0
	.uleb128 .LEHB7-.LFB10774
	.uleb128 .LEHE7-.LEHB7
	.uleb128 .L623-.LFB10774
	.uleb128 0
	.uleb128 .LEHB8-.LFB10774
	.uleb128 .LEHE8-.LEHB8
	.uleb128 0
	.uleb128 0
.LLSDACSE10774:
	.section	.text._ZNK4juce10Expression7Helpers8Subtract5cloneEv,"axG",@progbits,_ZNK4juce10Expression7Helpers8Subtract5cloneEv,comdat
	.size	_ZNK4juce10Expression7Helpers8Subtract5cloneEv, .-_ZNK4juce10Expression7Helpers8Subtract5cloneEv
	.section	.text._ZNK4juce10Expression7Helpers3Add5cloneEv,"axG",@progbits,_ZNK4juce10Expression7Helpers3Add5cloneEv,comdat
	.align 2
	.p2align 4
	.weak	_ZNK4juce10Expression7Helpers3Add5cloneEv
	.type	_ZNK4juce10Expression7Helpers3Add5cloneEv, @function
_ZNK4juce10Expression7Helpers3Add5cloneEv:
.LFB10765:
	.cfi_startproc
	.cfi_personality 0x9b,DW.ref.__gxx_personality_v0
	.cfi_lsda 0x1b,.LLSDA10765
	pushq	%r12
	.cfi_def_cfa_offset 16
	.cfi_offset 12, -16
	movq	%rdi, %r12
	movl	$32, %edi
	pushq	%rbp
	.cfi_def_cfa_offset 24
	.cfi_offset 6, -24
	pushq	%rbx
	.cfi_def_cfa_offset 32
	.cfi_offset 3, -32
.LEHB9:
	call	_Znwm@PLT
.LEHE9:
	movq	24(%r12), %rdi
	movq	%rax, %rbp
	movq	(%rdi), %rax
.LEHB10:
	call	*24(%rax)
.LEHE10:
	movq	16(%r12), %rdi
	addl	$1, 8(%rax)
	movq	%rax, %rbx
	movq	(%rdi), %rax
.LEHB11:
	call	*24(%rax)
.LEHE11:
	addl	$1, 8(%rax)
	movl	8(%rbx), %edx
	leaq	16+_ZTVN4juce10Expression7Helpers3AddE(%rip), %rsi
	movl	$0, 8(%rbp)
	leal	1(%rdx), %ecx
	movq	%rax, 16(%rbp)
	movl	%ecx, 8(%rbx)
	movl	8(%rax), %ecx
	movq	%rbx, 24(%rbp)
	movq	%rsi, 0(%rbp)
	testl	%ecx, %ecx
	jne	.L626
	movq	(%rax), %rdx
	movq	%rax, %rdi
	call	*8(%rdx)
	movl	8(%rbx), %eax
	leal	-1(%rax), %edx
.L626:
	movl	%edx, 8(%rbx)
	testl	%edx, %edx
	jne	.L625
	movq	(%rbx), %rax
	movq	%rbx, %rdi
	call	*8(%rax)
.L625:
	movq	%rbp, %rax
	popq	%rbx
	.cfi_remember_state
	.cfi_def_cfa_offset 24
	popq	%rbp
	.cfi_def_cfa_offset 16
	popq	%r12
	.cfi_def_cfa_offset 8
	ret
.L631:
	.cfi_restore_state
	movq	%rax, %r12
	jmp	.L630
.L632:
	movq	%rax, %r12
.L628:
	subl	$1, 8(%rbx)
	jne	.L630
	movq	(%rbx), %rax
	movq	%rbx, %rdi
	call	*8(%rax)
.L630:
	movq	%rbp, %rdi
	movl	$32, %esi
	call	_ZdlPvm@PLT
	movq	%r12, %rdi
.LEHB12:
	call	_Unwind_Resume@PLT
.LEHE12:
	.cfi_endproc
.LFE10765:
	.section	.gcc_except_table._ZNK4juce10Expression7Helpers3Add5cloneEv,"aG",@progbits,_ZNK4juce10Expression7Helpers3Add5cloneEv,comdat
.LLSDA10765:
	.byte	0xff
	.byte	0xff
	.byte	0x1
	.uleb128 .LLSDACSE10765-.LLSDACSB10765
.LLSDACSB10765:
	.uleb128 .LEHB9-.LFB10765
	.uleb128 .LEHE9-.LEHB9
	.uleb128 0
	.uleb128 0
	.uleb128 .LEHB10-.LFB10765
	.uleb128 .LEHE10-.LEHB10
	.uleb128 .L631-.LFB10765
	.uleb128 0
	.uleb128 .LEHB11-.LFB10765
	.uleb128 .LEHE11-.LEHB11
	.uleb128 .L632-.LFB10765
	.uleb128 0
	.uleb128 .LEHB12-.LFB10765
	.uleb128 .LEHE12-.LEHB12
	.uleb128 0
	.uleb128 0
.LLSDACSE10765:
	.section	.text._ZNK4juce10Expression7Helpers3Add5cloneEv,"axG",@progbits,_ZNK4juce10Expression7Helpers3Add5cloneEv,comdat
	.size	_ZNK4juce10Expression7Helpers3Add5cloneEv, .-_ZNK4juce10Expression7Helpers3Add5cloneEv
	.section	.text._ZNK4juce10Expression7Helpers11DotOperator5cloneEv,"axG",@progbits,_ZNK4juce10Expression7Helpers11DotOperator5cloneEv,comdat
	.align 2
	.p2align 4
	.weak	_ZNK4juce10Expression7Helpers11DotOperator5cloneEv
	.type	_ZNK4juce10Expression7Helpers11DotOperator5cloneEv, @function
_ZNK4juce10Expression7Helpers11DotOperator5cloneEv:
.LFB10718:
	.cfi_startproc
	pushq	%rbx
	.cfi_def_cfa_offset 16
	.cfi_offset 3, -16
	movq	%rdi, %rbx
	movl	$32, %edi
	subq	$16, %rsp
	.cfi_def_cfa_offset 32
	call	_Znwm@PLT
	movq	24(%rbx), %rdi
	movdqu	16(%rbx), %xmm0
	movq	%rax, %rdx
	movl	8(%rdi), %eax
	movq	%xmm0, %rcx
	addl	$2, %eax
	movl	%eax, 8(%rdi)
	testq	%rcx, %rcx
	je	.L635
	addl	$1, 8(%rcx)
	movl	8(%rdi), %eax
.L635:
	leaq	16+_ZTVN4juce10Expression7Helpers11DotOperatorE(%rip), %rsi
	subl	$1, %eax
	movl	$0, 8(%rdx)
	movq	%rsi, (%rdx)
	movl	%eax, 8(%rdi)
	movups	%xmm0, 16(%rdx)
	jne	.L634
	movq	(%rdi), %rax
	movq	%rdx, 8(%rsp)
	call	*8(%rax)
	movq	8(%rsp), %rdx
.L634:
	addq	$16, %rsp
	.cfi_def_cfa_offset 16
	movq	%rdx, %rax
	popq	%rbx
	.cfi_def_cfa_offset 8
	ret
	.cfi_endproc
.LFE10718:
	.size	_ZNK4juce10Expression7Helpers11DotOperator5cloneEv, .-_ZNK4juce10Expression7Helpers11DotOperator5cloneEv
	.section	.text._ZNK4juce10Expression7Helpers8Multiply5cloneEv,"axG",@progbits,_ZNK4juce10Expression7Helpers8Multiply5cloneEv,comdat
	.align 2
	.p2align 4
	.weak	_ZNK4juce10Expression7Helpers8Multiply5cloneEv
	.type	_ZNK4juce10Expression7Helpers8Multiply5cloneEv, @function
_ZNK4juce10Expression7Helpers8Multiply5cloneEv:
.LFB10783:
	.cfi_startproc
	.cfi_personality 0x9b,DW.ref.__gxx_personality_v0
	.cfi_lsda 0x1b,.LLSDA10783
	pushq	%r12
	.cfi_def_cfa_offset 16
	.cfi_offset 12, -16
	movq	%rdi, %r12
	movl	$32, %edi
	pushq	%rbp
	.cfi_def_cfa_offset 24
	.cfi_offset 6, -24
	pushq	%rbx
	.cfi_def_cfa_offset 32
	.cfi_offset 3, -32
.LEHB13:
	call	_Znwm@PLT
.LEHE13:
	movq	24(%r12), %rdi
	movq	%rax, %rbp
	movq	(%rdi), %rax
.LEHB14:
	call	*24(%rax)
.LEHE14:
	movq	16(%r12), %rdi
	addl	$1, 8(%rax)
	movq	%rax, %rbx
	movq	(%rdi), %rax
.LEHB15:
	call	*24(%rax)
.LEHE15:
	addl	$1, 8(%rax)
	movl	8(%rbx), %edx
	leaq	16+_ZTVN4juce10Expression7Helpers8MultiplyE(%rip), %rsi
	movl	$0, 8(%rbp)
	leal	1(%rdx), %ecx
	movq	%rax, 16(%rbp)
	movl	%ecx, 8(%rbx)
	movl	8(%rax), %ecx
	movq	%rbx, 24(%rbp)
	movq	%rsi, 0(%rbp)
	testl	%ecx, %ecx
	jne	.L642
	movq	(%rax), %rdx
	movq	%rax, %rdi
	call	*8(%rdx)
	movl	8(%rbx), %eax
	leal	-1(%rax), %edx
.L642:
	movl	%edx, 8(%rbx)
	testl	%edx, %edx
	jne	.L641
	movq	(%rbx), %rax
	movq	%rbx, %rdi
	call	*8(%rax)
.L641:
	movq	%rbp, %rax
	popq	%rbx
	.cfi_remember_state
	.cfi_def_cfa_offset 24
	popq	%rbp
	.cfi_def_cfa_offset 16
	popq	%r12
	.cfi_def_cfa_offset 8
	ret
.L647:
	.cfi_restore_state
	movq	%rax, %r12
	jmp	.L646
.L648:
	movq	%rax, %r12
.L644:
	subl	$1, 8(%rbx)
	jne	.L646
	movq	(%rbx), %rax
	movq	%rbx, %rdi
	call	*8(%rax)
.L646:
	movq	%rbp, %rdi
	movl	$32, %esi
	call	_ZdlPvm@PLT
	movq	%r12, %rdi
.LEHB16:
	call	_Unwind_Resume@PLT
.LEHE16:
	.cfi_endproc
.LFE10783:
	.section	.gcc_except_table._ZNK4juce10Expression7Helpers8Multiply5cloneEv,"aG",@progbits,_ZNK4juce10Expression7Helpers8Multiply5cloneEv,comdat
.LLSDA10783:
	.byte	0xff
	.byte	0xff
	.byte	0x1
	.uleb128 .LLSDACSE10783-.LLSDACSB10783
.LLSDACSB10783:
	.uleb128 .LEHB13-.LFB10783
	.uleb128 .LEHE13-.LEHB13
	.uleb128 0
	.uleb128 0
	.uleb128 .LEHB14-.LFB10783
	.uleb128 .LEHE14-.LEHB14
	.uleb128 .L647-.LFB10783
	.uleb128 0
	.uleb128 .LEHB15-.LFB10783
	.uleb128 .LEHE15-.LEHB15
	.uleb128 .L648-.LFB10783
	.uleb128 0
	.uleb128 .LEHB16-.LFB10783
	.uleb128 .LEHE16-.LEHB16
	.uleb128 0
	.uleb128 0
.LLSDACSE10783:
	.section	.text._ZNK4juce10Expression7Helpers8Multiply5cloneEv,"axG",@progbits,_ZNK4juce10Expression7Helpers8Multiply5cloneEv,comdat
	.size	_ZNK4juce10Expression7Helpers8Multiply5cloneEv, .-_ZNK4juce10Expression7Helpers8Multiply5cloneEv
	.section	.text._ZNK4juce10Expression7Helpers6Divide5cloneEv,"axG",@progbits,_ZNK4juce10Expression7Helpers6Divide5cloneEv,comdat
	.align 2
	.p2align 4
	.weak	_ZNK4juce10Expression7Helpers6Divide5cloneEv
	.type	_ZNK4juce10Expression7Helpers6Divide5cloneEv, @function
_ZNK4juce10Expression7Helpers6Divide5cloneEv:
.LFB10792:
	.cfi_startproc
	.cfi_personality 0x9b,DW.ref.__gxx_personality_v0
	.cfi_lsda 0x1b,.LLSDA10792
	pushq	%r12
	.cfi_def_cfa_offset 16
	.cfi_offset 12, -16
	movq	%rdi, %r12
	movl	$32, %edi
	pushq	%rbp
	.cfi_def_cfa_offset 24
	.cfi_offset 6, -24
	pushq	%rbx
	.cfi_def_cfa_offset 32
	.cfi_offset 3, -32
.LEHB17:
	call	_Znwm@PLT
.LEHE17:
	movq	24(%r12), %rdi
	movq	%rax, %rbp
	movq	(%rdi), %rax
.LEHB18:
	call	*24(%rax)
.LEHE18:
	movq	16(%r12), %rdi
	addl	$1, 8(%rax)
	movq	%rax, %rbx
	movq	(%rdi), %rax
.LEHB19:
	call	*24(%rax)
.LEHE19:
	addl	$1, 8(%rax)
	movl	8(%rbx), %edx
	leaq	16+_ZTVN4juce10Expression7Helpers6DivideE(%rip), %rsi
	movl	$0, 8(%rbp)
	leal	1(%rdx), %ecx
	movq	%rax, 16(%rbp)
	movl	%ecx, 8(%rbx)
	movl	8(%rax), %ecx
	movq	%rbx, 24(%rbp)
	movq	%rsi, 0(%rbp)
	testl	%ecx, %ecx
	jne	.L651
	movq	(%rax), %rdx
	movq	%rax, %rdi
	call	*8(%rdx)
	movl	8(%rbx), %eax
	leal	-1(%rax), %edx
.L651:
	movl	%edx, 8(%rbx)
	testl	%edx, %edx
	jne	.L650
	movq	(%rbx), %rax
	movq	%rbx, %rdi
	call	*8(%rax)
.L650:
	movq	%rbp, %rax
	popq	%rbx
	.cfi_remember_state
	.cfi_def_cfa_offset 24
	popq	%rbp
	.cfi_def_cfa_offset 16
	popq	%r12
	.cfi_def_cfa_offset 8
	ret
.L656:
	.cfi_restore_state
	movq	%rax, %r12
	jmp	.L655
.L657:
	movq	%rax, %r12
.L653:
	subl	$1, 8(%rbx)
	jne	.L655
	movq	(%rbx), %rax
	movq	%rbx, %rdi
	call	*8(%rax)
.L655:
	movq	%rbp, %rdi
	movl	$32, %esi
	call	_ZdlPvm@PLT
	movq	%r12, %rdi
.LEHB20:
	call	_Unwind_Resume@PLT
.LEHE20:
	.cfi_endproc
.LFE10792:
	.section	.gcc_except_table._ZNK4juce10Expression7Helpers6Divide5cloneEv,"aG",@progbits,_ZNK4juce10Expression7Helpers6Divide5cloneEv,comdat
.LLSDA10792:
	.byte	0xff
	.byte	0xff
	.byte	0x1
	.uleb128 .LLSDACSE10792-.LLSDACSB10792
.LLSDACSB10792:
	.uleb128 .LEHB17-.LFB10792
	.uleb128 .LEHE17-.LEHB17
	.uleb128 0
	.uleb128 0
	.uleb128 .LEHB18-.LFB10792
	.uleb128 .LEHE18-.LEHB18
	.uleb128 .L656-.LFB10792
	.uleb128 0
	.uleb128 .LEHB19-.LFB10792
	.uleb128 .LEHE19-.LEHB19
	.uleb128 .L657-.LFB10792
	.uleb128 0
	.uleb128 .LEHB20-.LFB10792
	.uleb128 .LEHE20-.LEHB20
	.uleb128 0
	.uleb128 0
.LLSDACSE10792:
	.section	.text._ZNK4juce10Expression7Helpers6Divide5cloneEv,"axG",@progbits,_ZNK4juce10Expression7Helpers6Divide5cloneEv,comdat
	.size	_ZNK4juce10Expression7Helpers6Divide5cloneEv, .-_ZNK4juce10Expression7Helpers6Divide5cloneEv
	.section	.text._ZNK4juce10Expression7Helpers6Negate5cloneEv,"axG",@progbits,_ZNK4juce10Expression7Helpers6Negate5cloneEv,comdat
	.align 2
	.p2align 4
	.weak	_ZNK4juce10Expression7Helpers6Negate5cloneEv
	.type	_ZNK4juce10Expression7Helpers6Negate5cloneEv, @function
_ZNK4juce10Expression7Helpers6Negate5cloneEv:
.LFB10756:
	.cfi_startproc
	.cfi_personality 0x9b,DW.ref.__gxx_personality_v0
	.cfi_lsda 0x1b,.LLSDA10756
	pushq	%rbp
	.cfi_def_cfa_offset 16
	.cfi_offset 6, -16
	movq	%rdi, %rbp
	movl	$24, %edi
	pushq	%rbx
	.cfi_def_cfa_offset 24
	.cfi_offset 3, -24
	subq	$8, %rsp
	.cfi_def_cfa_offset 32
.LEHB21:
	call	_Znwm@PLT
.LEHE21:
	movq	16(%rbp), %rdi
	movq	%rax, %rbx
	movq	(%rdi), %rax
.LEHB22:
	call	*24(%rax)
.LEHE22:
	addl	$1, 8(%rax)
	leaq	16+_ZTVN4juce10Expression7Helpers6NegateE(%rip), %rcx
	movl	$0, 8(%rbx)
	movq	%rcx, (%rbx)
	movq	%rax, 16(%rbx)
	jne	.L659
	movq	(%rax), %rdx
	movq	%rax, %rdi
	call	*8(%rdx)
.L659:
	addq	$8, %rsp
	.cfi_remember_state
	.cfi_def_cfa_offset 24
	movq	%rbx, %rax
	popq	%rbx
	.cfi_def_cfa_offset 16
	popq	%rbp
	.cfi_def_cfa_offset 8
	ret
.L662:
	.cfi_restore_state
	movq	%rax, %rbp
.L661:
	movq	%rbx, %rdi
	movl	$24, %esi
	call	_ZdlPvm@PLT
	movq	%rbp, %rdi
.LEHB23:
	call	_Unwind_Resume@PLT
.LEHE23:
	.cfi_endproc
.LFE10756:
	.section	.gcc_except_table._ZNK4juce10Expression7Helpers6Negate5cloneEv,"aG",@progbits,_ZNK4juce10Expression7Helpers6Negate5cloneEv,comdat
.LLSDA10756:
	.byte	0xff
	.byte	0xff
	.byte	0x1
	.uleb128 .LLSDACSE10756-.LLSDACSB10756
.LLSDACSB10756:
	.uleb128 .LEHB21-.LFB10756
	.uleb128 .LEHE21-.LEHB21
	.uleb128 0
	.uleb128 0
	.uleb128 .LEHB22-.LFB10756
	.uleb128 .LEHE22-.LEHB22
	.uleb128 .L662-.LFB10756
	.uleb128 0
	.uleb128 .LEHB23-.LFB10756
	.uleb128 .LEHE23-.LEHB23
	.uleb128 0
	.uleb128 0
.LLSDACSE10756:
	.section	.text._ZNK4juce10Expression7Helpers6Negate5cloneEv,"axG",@progbits,_ZNK4juce10Expression7Helpers6Negate5cloneEv,comdat
	.size	_ZNK4juce10Expression7Helpers6Negate5cloneEv, .-_ZNK4juce10Expression7Helpers6Negate5cloneEv
	.section	.text._ZNSt23_Sp_counted_ptr_inplaceISt6vectorIPN4juce12ListenerListINS1_6Thread8ListenerENS1_5ArrayIPS4_NS1_15CriticalSectionELi0EEEE8IteratorESaISB_EESaIvELN9__gnu_cxx12_Lock_policyE2EE10_M_disposeEv,"axG",@progbits,_ZNSt23_Sp_counted_ptr_inplaceISt6vectorIPN4juce12ListenerListINS1_6Thread8ListenerENS1_5ArrayIPS4_NS1_15CriticalSectionELi0EEEE8IteratorESaISB_EESaIvELN9__gnu_cxx12_Lock_policyE2EE10_M_disposeEv,comdat
	.align 2
	.p2align 4
	.weak	_ZNSt23_Sp_counted_ptr_inplaceISt6vectorIPN4juce12ListenerListINS1_6Thread8ListenerENS1_5ArrayIPS4_NS1_15CriticalSectionELi0EEEE8IteratorESaISB_EESaIvELN9__gnu_cxx12_Lock_policyE2EE10_M_disposeEv
	.type	_ZNSt23_Sp_counted_ptr_inplaceISt6vectorIPN4juce12ListenerListINS1_6Thread8ListenerENS1_5ArrayIPS4_NS1_15CriticalSectionELi0EEEE8IteratorESaISB_EESaIvELN9__gnu_cxx12_Lock_policyE2EE10_M_disposeEv, @function
_ZNSt23_Sp_counted_ptr_inplaceISt6vectorIPN4juce12ListenerListINS1_6Thread8ListenerENS1_5ArrayIPS4_NS1_15CriticalSectionELi0EEEE8IteratorESaISB_EESaIvELN9__gnu_cxx12_Lock_policyE2EE10_M_disposeEv:
.LFB21471:
	.cfi_startproc
	movq	%rdi, %rax
	movq	16(%rdi), %rdi
	testq	%rdi, %rdi
	je	.L664
	movq	32(%rax), %rsi
	subq	%rdi, %rsi
	jmp	_ZdlPvm@PLT
	.p2align 4,,10
	.p2align 3
.L664:
	ret
	.cfi_endproc
.LFE21471:
	.size	_ZNSt23_Sp_counted_ptr_inplaceISt6vectorIPN4juce12ListenerListINS1_6Thread8ListenerENS1_5ArrayIPS4_NS1_15CriticalSectionELi0EEEE8IteratorESaISB_EESaIvELN9__gnu_cxx12_Lock_policyE2EE10_M_disposeEv, .-_ZNSt23_Sp_counted_ptr_inplaceISt6vectorIPN4juce12ListenerListINS1_6Thread8ListenerENS1_5ArrayIPS4_NS1_15CriticalSectionELi0EEEE8IteratorESaISB_EESaIvELN9__gnu_cxx12_Lock_policyE2EE10_M_disposeEv
	.section	.text._ZNSt23_Sp_counted_ptr_inplaceIN4juce20GenericPlatformTimer5TimerESaIvELN9__gnu_cxx12_Lock_policyE2EE10_M_disposeEv,"axG",@progbits,_ZNSt23_Sp_counted_ptr_inplaceIN4juce20GenericPlatformTimer5TimerESaIvELN9__gnu_cxx12_Lock_policyE2EE10_M_disposeEv,comdat
	.align 2
	.p2align 4
	.weak	_ZNSt23_Sp_counted_ptr_inplaceIN4juce20GenericPlatformTimer5TimerESaIvELN9__gnu_cxx12_Lock_policyE2EE10_M_disposeEv
	.type	_ZNSt23_Sp_counted_ptr_inplaceIN4juce20GenericPlatformTimer5TimerESaIvELN9__gnu_cxx12_Lock_policyE2EE10_M_disposeEv, @function
_ZNSt23_Sp_counted_ptr_inplaceIN4juce20GenericPlatformTimer5TimerESaIvELN9__gnu_cxx12_Lock_policyE2EE10_M_disposeEv:
.LFB21485:
	.cfi_startproc
	addq	$88, %rdi
	jmp	_ZNSt18condition_variableD1Ev@PLT
	.cfi_endproc
.LFE21485:
	.size	_ZNSt23_Sp_counted_ptr_inplaceIN4juce20GenericPlatformTimer5TimerESaIvELN9__gnu_cxx12_Lock_policyE2EE10_M_disposeEv, .-_ZNSt23_Sp_counted_ptr_inplaceIN4juce20GenericPlatformTimer5TimerESaIvELN9__gnu_cxx12_Lock_policyE2EE10_M_disposeEv
	.section	.text._ZN4juce3var11VariantType12binaryEqualsERKNS0_10ValueUnionES4_RKS1_,"axG",@progbits,_ZN4juce3var11VariantType12binaryEqualsERKNS0_10ValueUnionES4_RKS1_,comdat
	.p2align 4
	.weak	_ZN4juce3var11VariantType12binaryEqualsERKNS0_10ValueUnionES4_RKS1_
	.type	_ZN4juce3var11VariantType12binaryEqualsERKNS0_10ValueUnionES4_RKS1_, @function
_ZN4juce3var11VariantType12binaryEqualsERKNS0_10ValueUnionES4_RKS1_:
.LFB12913:
	.cfi_startproc
	.cfi_personality 0x9b,DW.ref.__gxx_personality_v0
	.cfi_lsda 0x1b,.LLSDA12913
	pushq	%rbx
	.cfi_def_cfa_offset 16
	.cfi_offset 3, -16
	movq	%rdi, %rbx
	movq	%rsi, %rdi
	call	*72(%rdx)
	testq	%rax, %rax
	je	.L670
	movq	(%rbx), %rcx
	movq	8(%rax), %rdx
	cmpq	%rdx, 8(%rcx)
	je	.L672
.L670:
	xorl	%eax, %eax
	popq	%rbx
	.cfi_remember_state
	.cfi_def_cfa_offset 8
	ret
	.p2align 4,,10
	.p2align 3
.L672:
	.cfi_restore_state
	movq	(%rcx), %rsi
	movq	(%rax), %rdi
	call	memcmp@PLT
	popq	%rbx
	.cfi_def_cfa_offset 8
	testl	%eax, %eax
	sete	%al
	ret
	.cfi_endproc
.LFE12913:
	.section	.gcc_except_table._ZN4juce3var11VariantType12binaryEqualsERKNS0_10ValueUnionES4_RKS1_,"aG",@progbits,_ZN4juce3var11VariantType12binaryEqualsERKNS0_10ValueUnionES4_RKS1_,comdat
.LLSDA12913:
	.byte	0xff
	.byte	0xff
	.byte	0x1
	.uleb128 .LLSDACSE12913-.LLSDACSB12913
.LLSDACSB12913:
.LLSDACSE12913:
	.section	.text._ZN4juce3var11VariantType12binaryEqualsERKNS0_10ValueUnionES4_RKS1_,"axG",@progbits,_ZN4juce3var11VariantType12binaryEqualsERKNS0_10ValueUnionES4_RKS1_,comdat
	.size	_ZN4juce3var11VariantType12binaryEqualsERKNS0_10ValueUnionES4_RKS1_, .-_ZN4juce3var11VariantType12binaryEqualsERKNS0_10ValueUnionES4_RKS1_
	.text
	.p2align 4
	.type	_ZN4juce13zlibNamespaceL13flush_pendingEPNS0_10z_stream_sE, @function
_ZN4juce13zlibNamespaceL13flush_pendingEPNS0_10z_stream_sE:
.LFB13376:
	.cfi_startproc
	movq	56(%rdi), %rdx
	movl	32(%rdi), %r8d
	movl	40(%rdx), %eax
	cmpl	%eax, %r8d
	cmova	%eax, %r8d
	testl	%r8d, %r8d
	jne	.L682
	ret
	.p2align 4,,10
	.p2align 3
.L682:
	subq	$40, %rsp
	.cfi_def_cfa_offset 48
	movl	%r8d, %r9d
	movq	%rdi, %rcx
	movq	32(%rdx), %rsi
	movq	24(%rdi), %rdi
	movq	%r9, %rdx
	movl	%r8d, 28(%rsp)
	movq	%rcx, 16(%rsp)
	movq	%r9, 8(%rsp)
	call	memcpy@PLT
	movq	16(%rsp), %rcx
	movq	8(%rsp), %r9
	movl	28(%rsp), %r8d
	movq	56(%rcx), %rax
	addq	%r9, 24(%rcx)
	addq	%r9, 32(%rax)
	addq	%r9, 40(%rcx)
	subl	%r8d, 32(%rcx)
	subl	%r8d, 40(%rax)
	jne	.L673
	movq	16(%rax), %rdx
	movq	%rdx, 32(%rax)
.L673:
	addq	$40, %rsp
	.cfi_def_cfa_offset 8
	ret
	.cfi_endproc
.LFE13376:
	.size	_ZN4juce13zlibNamespaceL13flush_pendingEPNS0_10z_stream_sE, .-_ZN4juce13zlibNamespaceL13flush_pendingEPNS0_10z_stream_sE
	.align 2
	.p2align 4
	.globl	_ZN4juce17MemoryInputStream4readEPvi
	.type	_ZN4juce17MemoryInputStream4readEPvi, @function
_ZN4juce17MemoryInputStream4readEPvi:
.LFB11583:
	.cfi_startproc
	testl	%edx, %edx
	jle	.L686
	movq	%rsi, %r8
	movq	16(%rdi), %rax
	movq	24(%rdi), %rsi
	cmpq	%rax, %rsi
	jb	.L691
.L686:
	xorl	%eax, %eax
	ret
	.p2align 4,,10
	.p2align 3
.L691:
	subq	%rsi, %rax
	movl	%edx, %edx
	subq	$24, %rsp
	.cfi_def_cfa_offset 32
	cmpq	%rdx, %rax
	movq	%rdi, 8(%rsp)
	cmovbe	%rax, %rdx
	addq	8(%rdi), %rsi
	movq	%r8, %rdi
	movq	%rdx, (%rsp)
	call	memcpy@PLT
	movq	(%rsp), %rdx
	movq	8(%rsp), %rcx
	movl	%edx, %eax
	addq	%rdx, 24(%rcx)
	addq	$24, %rsp
	.cfi_def_cfa_offset 8
	ret
	.cfi_endproc
.LFE11583:
	.size	_ZN4juce17MemoryInputStream4readEPvi, .-_ZN4juce17MemoryInputStream4readEPvi
	.align 2
	.p2align 4
	.globl	_ZN4juce16FileOutputStream17writeRepeatedByteEhm
	.type	_ZN4juce16FileOutputStream17writeRepeatedByteEhm, @function
_ZN4juce16FileOutputStream17writeRepeatedByteEhm:
.LFB10395:
	.cfi_startproc
	subq	$40, %rsp
	.cfi_def_cfa_offset 48
	movq	%rbp, 16(%rsp)
	.cfi_offset 6, -32
	movq	%rdi, %rbp
	movq	56(%rdi), %rdi
	movq	%r13, 32(%rsp)
	.cfi_offset 13, -16
	movq	%rdx, %r13
	leaq	(%rdi,%rdx), %rax
	cmpq	48(%rbp), %rax
	jb	.L707
	testq	%rdx, %rdx
	je	.L695
	movq	%rbx, 8(%rsp)
	.cfi_offset 3, -40
	xorl	%ebx, %ebx
	movq	%r12, 24(%rsp)
	.cfi_offset 12, -24
	movsbl	%sil, %r12d
	jmp	.L697
	.p2align 4,,10
	.p2align 3
.L708:
	addq	$1, %rbx
	cmpq	%rbx, %r13
	je	.L706
.L697:
	movq	0(%rbp), %rax
	movl	%r12d, %esi
	movq	%rbp, %rdi
	call	*48(%rax)
	testb	%al, %al
	jne	.L708
.L706:
	movq	8(%rsp), %rbx
	.cfi_restore 3
	movq	24(%rsp), %r12
	.cfi_restore 12
	movq	16(%rsp), %rbp
	movq	32(%rsp), %r13
	addq	$40, %rsp
	.cfi_def_cfa_offset 8
	ret
	.p2align 4,,10
	.p2align 3
.L707:
	.cfi_def_cfa_offset 48
	movzbl	%sil, %esi
	addq	64(%rbp), %rdi
	call	memset@PLT
	addq	%r13, 56(%rbp)
	addq	%r13, 40(%rbp)
.L695:
	movq	16(%rsp), %rbp
	movq	32(%rsp), %r13
	movl	$1, %eax
	addq	$40, %rsp
	.cfi_def_cfa_offset 8
	ret
	.cfi_endproc
.LFE10395:
	.size	_ZN4juce16FileOutputStream17writeRepeatedByteEhm, .-_ZN4juce16FileOutputStream17writeRepeatedByteEhm
	.section	.text.unlikely
	.align 2
.LCOLDB6:
	.text
.LHOTB6:
	.align 2
	.p2align 4
	.type	_ZZN4juce10ThreadPool6addJobESt8functionIFvvEEEN16LambdaJobWrapper6runJobEv, @function
_ZZN4juce10ThreadPool6addJobESt8functionIFvvEEEN16LambdaJobWrapper6runJobEv:
.LFB12543:
	.cfi_startproc
	subq	$8, %rsp
	.cfi_def_cfa_offset 16
	cmpq	$0, 88(%rdi)
	je	.L711
	movq	%rdi, %rax
	leaq	72(%rdi), %rdi
	call	*96(%rax)
	xorl	%eax, %eax
	addq	$8, %rsp
	.cfi_def_cfa_offset 8
	ret
	.cfi_endproc
	.section	.text.unlikely
	.cfi_startproc
	.type	_ZZN4juce10ThreadPool6addJobESt8functionIFvvEEEN16LambdaJobWrapper6runJobEv.cold, @function
_ZZN4juce10ThreadPool6addJobESt8functionIFvvEEEN16LambdaJobWrapper6runJobEv.cold:
.LFSB12543:
.L711:
	.cfi_def_cfa_offset 16
	call	_ZSt25__throw_bad_function_callv@PLT
	.cfi_endproc
.LFE12543:
	.text
	.size	_ZZN4juce10ThreadPool6addJobESt8functionIFvvEEEN16LambdaJobWrapper6runJobEv, .-_ZZN4juce10ThreadPool6addJobESt8functionIFvvEEEN16LambdaJobWrapper6runJobEv
	.section	.text.unlikely
	.size	_ZZN4juce10ThreadPool6addJobESt8functionIFvvEEEN16LambdaJobWrapper6runJobEv.cold, .-_ZZN4juce10ThreadPool6addJobESt8functionIFvvEEEN16LambdaJobWrapper6runJobEv.cold
.LCOLDE6:
	.text
.LHOTE6:
	.section	.text._ZN4juce12LambdaThread3runEv,"axG",@progbits,_ZN4juce12LambdaThread3runEv,comdat
	.align 2
	.p2align 4
	.weak	_ZN4juce12LambdaThread3runEv
	.type	_ZN4juce12LambdaThread3runEv, @function
_ZN4juce12LambdaThread3runEv:
.LFB12456:
	.cfi_startproc
	.cfi_personality 0x9b,DW.ref.__gxx_personality_v0
	.cfi_lsda 0x1b,.LLSDA12456
	pushq	%rbp
	.cfi_def_cfa_offset 16
	.cfi_offset 6, -16
	pushq	%rbx
	.cfi_def_cfa_offset 24
	.cfi_offset 3, -24
	subq	$8, %rsp
	.cfi_def_cfa_offset 32
	cmpq	$0, 424(%rdi)
	je	.L720
	movq	%rdi, %rbx
	leaq	408(%rdi), %rbp
	movq	%rbp, %rdi
.LEHB24:
	call	*432(%rbx)
.LEHE24:
	movq	424(%rbx), %rax
	testq	%rax, %rax
	je	.L713
	movl	$3, %edx
	movq	%rbp, %rsi
	movq	%rbp, %rdi
	call	*%rax
	pxor	%xmm0, %xmm0
	movups	%xmm0, 424(%rbx)
.L713:
	addq	$8, %rsp
	.cfi_remember_state
	.cfi_def_cfa_offset 24
	popq	%rbx
	.cfi_def_cfa_offset 16
	popq	%rbp
	.cfi_def_cfa_offset 8
	ret
.L720:
	.cfi_restore_state
.LEHB25:
	call	_ZSt25__throw_bad_function_callv@PLT
.LEHE25:
	.cfi_endproc
.LFE12456:
	.section	.gcc_except_table._ZN4juce12LambdaThread3runEv,"aG",@progbits,_ZN4juce12LambdaThread3runEv,comdat
.LLSDA12456:
	.byte	0xff
	.byte	0xff
	.byte	0x1
	.uleb128 .LLSDACSE12456-.LLSDACSB12456
.LLSDACSB12456:
	.uleb128 .LEHB24-.LFB12456
	.uleb128 .LEHE24-.LEHB24
	.uleb128 0
	.uleb128 0
	.uleb128 .LEHB25-.LFB12456
	.uleb128 .LEHE25-.LEHB25
	.uleb128 0
	.uleb128 0
.LLSDACSE12456:
	.section	.text._ZN4juce12LambdaThread3runEv,"axG",@progbits,_ZN4juce12LambdaThread3runEv,comdat
	.size	_ZN4juce12LambdaThread3runEv, .-_ZN4juce12LambdaThread3runEv
	.section	.text.unlikely
	.align 2
.LCOLDB7:
	.text
.LHOTB7:
	.align 2
	.p2align 4
	.type	_ZZN4juce10ThreadPool6addJobESt8functionIFNS_13ThreadPoolJob9JobStatusEvEEEN16LambdaJobWrapper6runJobEv, @function
_ZZN4juce10ThreadPool6addJobESt8functionIFNS_13ThreadPoolJob9JobStatusEvEEEN16LambdaJobWrapper6runJobEv:
.LFB12538:
	.cfi_startproc
	cmpq	$0, 88(%rdi)
	je	.L723
	movq	96(%rdi), %rax
	addq	$72, %rdi
	jmp	*%rax
	.cfi_endproc
	.section	.text.unlikely
	.cfi_startproc
	.type	_ZZN4juce10ThreadPool6addJobESt8functionIFNS_13ThreadPoolJob9JobStatusEvEEEN16LambdaJobWrapper6runJobEv.cold, @function
_ZZN4juce10ThreadPool6addJobESt8functionIFNS_13ThreadPoolJob9JobStatusEvEEEN16LambdaJobWrapper6runJobEv.cold:
.LFSB12538:
.L723:
	pushq	%rax
	.cfi_def_cfa_offset 16
	call	_ZSt25__throw_bad_function_callv@PLT
	.cfi_endproc
.LFE12538:
	.text
	.size	_ZZN4juce10ThreadPool6addJobESt8functionIFNS_13ThreadPoolJob9JobStatusEvEEEN16LambdaJobWrapper6runJobEv, .-_ZZN4juce10ThreadPool6addJobESt8functionIFNS_13ThreadPoolJob9JobStatusEvEEEN16LambdaJobWrapper6runJobEv
	.section	.text.unlikely
	.size	_ZZN4juce10ThreadPool6addJobESt8functionIFNS_13ThreadPoolJob9JobStatusEvEEEN16LambdaJobWrapper6runJobEv.cold, .-_ZZN4juce10ThreadPool6addJobESt8functionIFNS_13ThreadPoolJob9JobStatusEvEEEN16LambdaJobWrapper6runJobEv.cold
.LCOLDE7:
	.text
.LHOTE7:
	.section	.text.unlikely
	.align 2
.LCOLDB8:
	.text
.LHOTB8:
	.align 2
	.p2align 4
	.type	_ZZNK4juce3URL17createInputStreamERKNS0_18InputStreamOptionsEEN22ProgressCallbackCaller20postDataSendProgressERNS_14WebInputStreamEii, @function
_ZZNK4juce3URL17createInputStreamERKNS0_18InputStreamOptionsEEN22ProgressCallbackCaller20postDataSendProgressERNS_14WebInputStreamEii:
.LFB14265:
	.cfi_startproc
	subq	$24, %rsp
	.cfi_def_cfa_offset 32
	movq	%fs:40, %rsi
	movq	%rsi, 8(%rsp)
	xorl	%esi, %esi
	movl	%edx, (%rsp)
	movl	%ecx, 4(%rsp)
	cmpq	$0, 24(%rdi)
	je	.L730
	movq	%rdi, %rax
	leaq	4(%rsp), %rdx
	leaq	8(%rdi), %rdi
	movq	%rsp, %rsi
	call	*32(%rax)
	movq	8(%rsp), %rdx
	subq	%fs:40, %rdx
	jne	.L732
	addq	$24, %rsp
	.cfi_remember_state
	.cfi_def_cfa_offset 8
	ret
.L732:
	.cfi_restore_state
	call	__stack_chk_fail@PLT
	.cfi_endproc
	.section	.text.unlikely
	.cfi_startproc
	.type	_ZZNK4juce3URL17createInputStreamERKNS0_18InputStreamOptionsEEN22ProgressCallbackCaller20postDataSendProgressERNS_14WebInputStreamEii.cold, @function
_ZZNK4juce3URL17createInputStreamERKNS0_18InputStreamOptionsEEN22ProgressCallbackCaller20postDataSendProgressERNS_14WebInputStreamEii.cold:
.LFSB14265:
.L730:
	.cfi_def_cfa_offset 32
	movq	8(%rsp), %rax
	subq	%fs:40, %rax
	jne	.L733
	call	_ZSt25__throw_bad_function_callv@PLT
.L733:
	call	__stack_chk_fail@PLT
	.cfi_endproc
.LFE14265:
	.text
	.size	_ZZNK4juce3URL17createInputStreamERKNS0_18InputStreamOptionsEEN22ProgressCallbackCaller20postDataSendProgressERNS_14WebInputStreamEii, .-_ZZNK4juce3URL17createInputStreamERKNS0_18InputStreamOptionsEEN22ProgressCallbackCaller20postDataSendProgressERNS_14WebInputStreamEii
	.section	.text.unlikely
	.size	_ZZNK4juce3URL17createInputStreamERKNS0_18InputStreamOptionsEEN22ProgressCallbackCaller20postDataSendProgressERNS_14WebInputStreamEii.cold, .-_ZZNK4juce3URL17createInputStreamERKNS0_18InputStreamOptionsEEN22ProgressCallbackCaller20postDataSendProgressERNS_14WebInputStreamEii.cold
.LCOLDE8:
	.text
.LHOTE8:
	.section	.text._ZN4juce12LockedRandomD2Ev,"axG",@progbits,_ZN4juce12LockedRandomD5Ev,comdat
	.align 2
	.p2align 4
	.weak	_ZN4juce12LockedRandomD2Ev
	.type	_ZN4juce12LockedRandomD2Ev, @function
_ZN4juce12LockedRandomD2Ev:
.LFB21461:
	.cfi_startproc
	jmp	pthread_mutex_destroy@PLT
	.cfi_endproc
.LFE21461:
	.size	_ZN4juce12LockedRandomD2Ev, .-_ZN4juce12LockedRandomD2Ev
	.weak	_ZN4juce12LockedRandomD1Ev
	.set	_ZN4juce12LockedRandomD1Ev,_ZN4juce12LockedRandomD2Ev
	.section	.text._ZNSt23_Sp_counted_ptr_inplaceIN4juce5ArrayIPNS0_6Thread8ListenerENS0_15CriticalSectionELi0EEESaIvELN9__gnu_cxx12_Lock_policyE2EE10_M_disposeEv,"axG",@progbits,_ZNSt23_Sp_counted_ptr_inplaceIN4juce5ArrayIPNS0_6Thread8ListenerENS0_15CriticalSectionELi0EEESaIvELN9__gnu_cxx12_Lock_policyE2EE10_M_disposeEv,comdat
	.align 2
	.p2align 4
	.weak	_ZNSt23_Sp_counted_ptr_inplaceIN4juce5ArrayIPNS0_6Thread8ListenerENS0_15CriticalSectionELi0EEESaIvELN9__gnu_cxx12_Lock_policyE2EE10_M_disposeEv
	.type	_ZNSt23_Sp_counted_ptr_inplaceIN4juce5ArrayIPNS0_6Thread8ListenerENS0_15CriticalSectionELi0EEESaIvELN9__gnu_cxx12_Lock_policyE2EE10_M_disposeEv, @function
_ZNSt23_Sp_counted_ptr_inplaceIN4juce5ArrayIPNS0_6Thread8ListenerENS0_15CriticalSectionELi0EEESaIvELN9__gnu_cxx12_Lock_policyE2EE10_M_disposeEv:
.LFB21478:
	.cfi_startproc
	pushq	%rbx
	.cfi_def_cfa_offset 16
	.cfi_offset 3, -16
	movq	%rdi, %rbx
	movl	$0, 68(%rdi)
	movq	56(%rdi), %rdi
	call	free@PLT
	leaq	16(%rbx), %rdi
	popq	%rbx
	.cfi_def_cfa_offset 8
	jmp	pthread_mutex_destroy@PLT
	.cfi_endproc
.LFE21478:
	.size	_ZNSt23_Sp_counted_ptr_inplaceIN4juce5ArrayIPNS0_6Thread8ListenerENS0_15CriticalSectionELi0EEESaIvELN9__gnu_cxx12_Lock_policyE2EE10_M_disposeEv, .-_ZNSt23_Sp_counted_ptr_inplaceIN4juce5ArrayIPNS0_6Thread8ListenerENS0_15CriticalSectionELi0EEESaIvELN9__gnu_cxx12_Lock_policyE2EE10_M_disposeEv
	.section	.text._ZN4juce7ZipFile14ZipInputStream4readEPvi,"axG",@progbits,_ZN4juce7ZipFile14ZipInputStream4readEPvi,comdat
	.align 2
	.p2align 4
	.weak	_ZN4juce7ZipFile14ZipInputStream4readEPvi
	.type	_ZN4juce7ZipFile14ZipInputStream4readEPvi, @function
_ZN4juce7ZipFile14ZipInputStream4readEPvi:
.LFB13507:
	.cfi_startproc
	.cfi_personality 0x9b,DW.ref.__gxx_personality_v0
	.cfi_lsda 0x1b,.LLSDA13507
	movl	80(%rdi), %eax
	testl	%eax, %eax
	jle	.L740
	movq	88(%rdi), %rcx
	testq	%rcx, %rcx
	je	.L740
	subq	$40, %rsp
	.cfi_def_cfa_offset 48
	movslq	%edx, %rdx
	movq	%rbx, 16(%rsp)
	.cfi_offset 3, -32
	movq	%rdi, %rbx
	movq	%r15, 32(%rsp)
	.cfi_offset 15, -16
	movq	%rsi, %r15
	movq	72(%rdi), %rsi
	movq	56(%rdi), %rdi
	subq	%rsi, %rdi
	cmpq	%rdx, %rdi
	cmovle	%rdi, %rdx
	movq	8(%rbx), %rdi
	cmpq	56(%rdi), %rcx
	je	.L752
	addq	48(%rbx), %rsi
	movq	%rcx, %rdi
	movl	%edx, 12(%rsp)
	addq	%rax, %rsi
	movq	(%rcx), %rax
.LEHB26:
	call	*184(%rax)
	movq	88(%rbx), %rdi
	movl	12(%rsp), %edx
	movq	%r15, %rsi
	movq	(%rdi), %rax
	call	*32(%rax)
.LEHE26:
	movl	%eax, %edx
.L742:
	movslq	%edx, %rax
	movq	32(%rsp), %r15
	addq	%rax, 72(%rbx)
	movl	%edx, %eax
	movq	16(%rsp), %rbx
	addq	$40, %rsp
	.cfi_restore 3
	.cfi_restore 15
	.cfi_def_cfa_offset 8
	ret
	.p2align 4,,10
	.p2align 3
.L740:
	xorl	%eax, %eax
	ret
	.p2align 4,,10
	.p2align 3
.L752:
	.cfi_def_cfa_offset 48
	.cfi_offset 3, -32
	.cfi_offset 15, -16
	movq	%r14, 24(%rsp)
	.cfi_offset 14, -24
	leaq	16(%rdi), %r14
	movq	%r14, %rdi
	movl	%edx, 12(%rsp)
	call	pthread_mutex_lock@PLT
	movslq	80(%rbx), %rax
	movq	88(%rbx), %rdi
	movq	48(%rbx), %rsi
	addq	72(%rbx), %rsi
	addq	%rax, %rsi
	movq	(%rdi), %rax
.LEHB27:
	call	*184(%rax)
	movq	88(%rbx), %rdi
	movl	12(%rsp), %edx
	movq	%r15, %rsi
	movq	(%rdi), %rax
	call	*32(%rax)
.LEHE27:
	movq	%r14, %rdi
	movl	%eax, 12(%rsp)
	call	pthread_mutex_unlock@PLT
	movl	12(%rsp), %edx
	movq	24(%rsp), %r14
	.cfi_remember_state
	.cfi_restore 14
	jmp	.L742
.L744:
	.cfi_restore_state
	movq	%rax, %rbx
.L743:
	movq	%r14, %rdi
	call	pthread_mutex_unlock@PLT
	movq	%rbx, %rdi
.LEHB28:
	call	_Unwind_Resume@PLT
.LEHE28:
	.cfi_endproc
.LFE13507:
	.section	.gcc_except_table._ZN4juce7ZipFile14ZipInputStream4readEPvi,"aG",@progbits,_ZN4juce7ZipFile14ZipInputStream4readEPvi,comdat
.LLSDA13507:
	.byte	0xff
	.byte	0xff
	.byte	0x1
	.uleb128 .LLSDACSE13507-.LLSDACSB13507
.LLSDACSB13507:
	.uleb128 .LEHB26-.LFB13507
	.uleb128 .LEHE26-.LEHB26
	.uleb128 0
	.uleb128 0
	.uleb128 .LEHB27-.LFB13507
	.uleb128 .LEHE27-.LEHB27
	.uleb128 .L744-.LFB13507
	.uleb128 0
	.uleb128 .LEHB28-.LFB13507
	.uleb128 .LEHE28-.LEHB28
	.uleb128 0
	.uleb128 0
.LLSDACSE13507:
	.section	.text._ZN4juce7ZipFile14ZipInputStream4readEPvi,"axG",@progbits,_ZN4juce7ZipFile14ZipInputStream4readEPvi,comdat
	.size	_ZN4juce7ZipFile14ZipInputStream4readEPvi, .-_ZN4juce7ZipFile14ZipInputStream4readEPvi
	.text
	.p2align 4
	.type	_ZN4juce12_GLOBAL__N_1L21updateStatInfoForFileERKNS_6StringEPbPxPNS_4TimeES7_S4_, @function
_ZN4juce12_GLOBAL__N_1L21updateStatInfoForFileERKNS_6StringEPbPxPNS_4TimeES7_S4_:
.LFB11220:
	.cfi_startproc
	movq	%rsi, %rax
	subq	$216, %rsp
	.cfi_def_cfa_offset 224
	movq	%fs:40, %r11
	movq	%r11, 200(%rsp)
	movq	%rdi, %r11
	orq	%rdx, %rax
	jne	.L754
	movq	%r8, %rax
	orq	%rcx, %rax
	jne	.L797
.L755:
	testq	%r9, %r9
	je	.L753
	movq	(%r11), %rdi
	movl	$2, %esi
	movq	%r9, (%rsp)
	call	access@PLT
	movq	(%rsp), %r9
	testl	%eax, %eax
	setne	(%r9)
.L753:
	movq	200(%rsp), %rax
	subq	%fs:40, %rax
	jne	.L798
	addq	$216, %rsp
	.cfi_remember_state
	.cfi_def_cfa_offset 8
	ret
	.p2align 4,,10
	.p2align 3
.L754:
	.cfi_restore_state
	movq	(%r11), %rdi
	movq	%rsi, %r10
	cmpb	$0, (%rdi)
	jne	.L799
.L787:
	testq	%r10, %r10
	je	.L764
	movb	$0, (%r10)
	testq	%rdx, %rdx
	je	.L792
.L764:
	movq	$0, (%rdx)
.L792:
	testq	%rcx, %rcx
	je	.L800
.L771:
	movq	$0, (%rcx)
	testq	%r8, %r8
	je	.L755
.L773:
	xorl	%eax, %eax
.L762:
	movq	%rax, (%r8)
	jmp	.L755
	.p2align 4,,10
	.p2align 3
.L797:
	movq	(%r11), %rdi
	cmpb	$0, (%rdi)
	jne	.L801
	testq	%rcx, %rcx
	jne	.L771
	jmp	.L773
	.p2align 4,,10
	.p2align 3
.L799:
	movq	%rsi, 8(%rsp)
	leaq	48(%rsp), %rsi
	movq	%r9, 40(%rsp)
	movq	%r8, 32(%rsp)
	movq	%rcx, 24(%rsp)
	movq	%rdx, 16(%rsp)
	movq	%r11, (%rsp)
	call	stat64@PLT
	movq	(%rsp), %r11
	movq	8(%rsp), %r10
	testl	%eax, %eax
	movq	16(%rsp), %rdx
	movq	24(%rsp), %rcx
	movq	32(%rsp), %r8
	movq	40(%rsp), %r9
	jne	.L787
	testq	%r10, %r10
	je	.L766
	testb	$64, 73(%rsp)
	je	.L769
	movb	$1, (%r10)
	testq	%rdx, %rdx
	je	.L795
.L766:
	movq	96(%rsp), %rax
	movq	%rax, (%rdx)
.L795:
	testq	%rcx, %rcx
	je	.L796
	imulq	$1000, 136(%rsp), %rax
	movq	%rax, (%rcx)
.L796:
	testq	%r8, %r8
	je	.L755
	imulq	$1000, 152(%rsp), %rax
	jmp	.L762
	.p2align 4,,10
	.p2align 3
.L801:
	leaq	48(%rsp), %rsi
	movq	%r9, 24(%rsp)
	movq	%r8, 16(%rsp)
	movq	%rcx, 8(%rsp)
	movq	%r11, (%rsp)
	call	stat64@PLT
	movq	(%rsp), %r11
	movq	8(%rsp), %rcx
	testl	%eax, %eax
	movq	16(%rsp), %r8
	movq	24(%rsp), %r9
	jne	.L792
	jmp	.L795
	.p2align 4,,10
	.p2align 3
.L769:
	movb	$0, (%r10)
	testq	%rdx, %rdx
	jne	.L766
	jmp	.L795
	.p2align 4,,10
	.p2align 3
.L800:
	testq	%r8, %r8
	jne	.L773
	jmp	.L755
.L798:
	call	__stack_chk_fail@PLT
	.cfi_endproc
.LFE11220:
	.size	_ZN4juce12_GLOBAL__N_1L21updateStatInfoForFileERKNS_6StringEPbPxPNS_4TimeES7_S4_, .-_ZN4juce12_GLOBAL__N_1L21updateStatInfoForFileERKNS_6StringEPbPxPNS_4TimeES7_S4_
	.align 2
	.p2align 4
	.globl	_ZN4juce15FileInputStream11setPositionEx
	.type	_ZN4juce15FileInputStream11setPositionEx, @function
_ZN4juce15FileInputStream11setPositionEx:
.LFB10382:
	.cfi_startproc
	cmpq	%rsi, 24(%rdi)
	je	.L807
	pushq	%rbx
	.cfi_def_cfa_offset 16
	.cfi_offset 3, -16
	movq	%rdi, %rbx
	subq	$16, %rsp
	.cfi_def_cfa_offset 32
	movq	16(%rdi), %rdi
	testq	%rdi, %rdi
	je	.L806
	xorl	%edx, %edx
	movq	%rsi, 8(%rsp)
	call	lseek@PLT
	movq	8(%rsp), %rsi
	movq	$-1, %rdx
	cmpq	%rax, %rsi
	cmovne	%rdx, %rax
.L804:
	cmpq	%rax, %rsi
	movq	%rax, 24(%rbx)
	sete	%al
	addq	$16, %rsp
	.cfi_def_cfa_offset 16
	popq	%rbx
	.cfi_def_cfa_offset 8
	ret
	.p2align 4,,10
	.p2align 3
.L807:
	.cfi_restore 3
	cmpq	%rsi, %rsi
	sete	%al
	ret
	.p2align 4,,10
	.p2align 3
.L806:
	.cfi_def_cfa_offset 32
	.cfi_offset 3, -16
	movq	$-1, %rax
	jmp	.L804
	.cfi_endproc
.LFE10382:
	.size	_ZN4juce15FileInputStream11setPositionEx, .-_ZN4juce15FileInputStream11setPositionEx
	.p2align 4
	.type	_ZN4juceL11handleCrashEi, @function
_ZN4juceL11handleCrashEi:
.LFB11674:
	.cfi_startproc
	subq	$8, %rsp
	.cfi_def_cfa_offset 16
	movslq	%edi, %rdi
	call	*_ZN4juceL18globalCrashHandlerE(%rip)
	call	getpid@PLT
	movl	$9, %esi
	addq	$8, %rsp
	.cfi_def_cfa_offset 8
	movl	%eax, %edi
	jmp	kill@PLT
	.cfi_endproc
.LFE11674:
	.size	_ZN4juceL11handleCrashEi, .-_ZN4juceL11handleCrashEi
	.section	.text._ZN4juce3var11VariantType13objectCleanUpERNS0_10ValueUnionE,"axG",@progbits,_ZN4juce3var11VariantType13objectCleanUpERNS0_10ValueUnionE,comdat
	.p2align 4
	.weak	_ZN4juce3var11VariantType13objectCleanUpERNS0_10ValueUnionE
	.type	_ZN4juce3var11VariantType13objectCleanUpERNS0_10ValueUnionE, @function
_ZN4juce3var11VariantType13objectCleanUpERNS0_10ValueUnionE:
.LFB12875:
	.cfi_startproc
	movq	(%rdi), %rdi
	testq	%rdi, %rdi
	je	.L814
	lock subl	$1, 8(%rdi)
	jne	.L814
	movq	(%rdi), %rax
	jmp	*8(%rax)
	.p2align 4,,10
	.p2align 3
.L814:
	ret
	.cfi_endproc
.LFE12875:
	.size	_ZN4juce3var11VariantType13objectCleanUpERNS0_10ValueUnionE, .-_ZN4juce3var11VariantType13objectCleanUpERNS0_10ValueUnionE
	.section	.text._ZNK4juce10Expression7Helpers8Function7getNameEv,"axG",@progbits,_ZNK4juce10Expression7Helpers8Function7getNameEv,comdat
	.align 2
	.p2align 4
	.weak	_ZNK4juce10Expression7Helpers8Function7getNameEv
	.type	_ZNK4juce10Expression7Helpers8Function7getNameEv, @function
_ZNK4juce10Expression7Helpers8Function7getNameEv:
.LFB10698:
	.cfi_startproc
	movq	16(%rsi), %rax
	leaq	16+_ZN4juceL11emptyStringE(%rip), %rdx
	movq	%rax, (%rdi)
	cmpq	%rdx, %rax
	je	.L822
	lock addl	$1, -16(%rax)
.L822:
	movq	%rdi, %rax
	ret
	.cfi_endproc
.LFE10698:
	.size	_ZNK4juce10Expression7Helpers8Function7getNameEv, .-_ZNK4juce10Expression7Helpers8Function7getNameEv
	.section	.text._ZNK4juce10Expression7Helpers10SymbolTerm8toStringEv,"axG",@progbits,_ZNK4juce10Expression7Helpers10SymbolTerm8toStringEv,comdat
	.align 2
	.p2align 4
	.weak	_ZNK4juce10Expression7Helpers10SymbolTerm8toStringEv
	.type	_ZNK4juce10Expression7Helpers10SymbolTerm8toStringEv, @function
_ZNK4juce10Expression7Helpers10SymbolTerm8toStringEv:
.LFB10669:
	.cfi_startproc
	movq	16(%rsi), %rax
	leaq	16+_ZN4juceL11emptyStringE(%rip), %rdx
	movq	%rax, (%rdi)
	cmpq	%rdx, %rax
	je	.L824
	lock addl	$1, -16(%rax)
.L824:
	movq	%rdi, %rax
	ret
	.cfi_endproc
.LFE10669:
	.size	_ZNK4juce10Expression7Helpers10SymbolTerm8toStringEv, .-_ZNK4juce10Expression7Helpers10SymbolTerm8toStringEv
	.section	.text._ZNK4juce10Expression7Helpers10SymbolTerm5cloneEv,"axG",@progbits,_ZNK4juce10Expression7Helpers10SymbolTerm5cloneEv,comdat
	.align 2
	.p2align 4
	.weak	_ZNK4juce10Expression7Helpers10SymbolTerm5cloneEv
	.type	_ZNK4juce10Expression7Helpers10SymbolTerm5cloneEv, @function
_ZNK4juce10Expression7Helpers10SymbolTerm5cloneEv:
.LFB10668:
	.cfi_startproc
	pushq	%rbx
	.cfi_def_cfa_offset 16
	.cfi_offset 3, -16
	movq	%rdi, %rbx
	movl	$24, %edi
	call	_Znwm@PLT
	movq	16(%rbx), %rdx
	leaq	16+_ZTVN4juce10Expression7Helpers10SymbolTermE(%rip), %rsi
	leaq	16+_ZN4juceL11emptyStringE(%rip), %rcx
	movl	$0, 8(%rax)
	movq	%rsi, (%rax)
	movq	%rdx, 16(%rax)
	cmpq	%rcx, %rdx
	je	.L826
	lock addl	$1, -16(%rdx)
.L826:
	popq	%rbx
	.cfi_def_cfa_offset 8
	ret
	.cfi_endproc
.LFE10668:
	.size	_ZNK4juce10Expression7Helpers10SymbolTerm5cloneEv, .-_ZNK4juce10Expression7Helpers10SymbolTerm5cloneEv
	.section	.text._ZNK4juce10Expression7Helpers10SymbolTerm7getNameEv,"axG",@progbits,_ZNK4juce10Expression7Helpers10SymbolTerm7getNameEv,comdat
	.align 2
	.p2align 4
	.weak	_ZNK4juce10Expression7Helpers10SymbolTerm7getNameEv
	.type	_ZNK4juce10Expression7Helpers10SymbolTerm7getNameEv, @function
_ZNK4juce10Expression7Helpers10SymbolTerm7getNameEv:
.LFB10670:
	.cfi_startproc
	movq	16(%rsi), %rax
	leaq	16+_ZN4juceL11emptyStringE(%rip), %rdx
	movq	%rax, (%rdi)
	cmpq	%rdx, %rax
	je	.L829
	lock addl	$1, -16(%rax)
.L829:
	movq	%rdi, %rax
	ret
	.cfi_endproc
.LFE10670:
	.size	_ZNK4juce10Expression7Helpers10SymbolTerm7getNameEv, .-_ZNK4juce10Expression7Helpers10SymbolTerm7getNameEv
	.section	.text._ZN4juce3var11VariantType16objectCreateCopyERNS0_10ValueUnionERKS2_,"axG",@progbits,_ZN4juce3var11VariantType16objectCreateCopyERNS0_10ValueUnionERKS2_,comdat
	.p2align 4
	.weak	_ZN4juce3var11VariantType16objectCreateCopyERNS0_10ValueUnionERKS2_
	.type	_ZN4juce3var11VariantType16objectCreateCopyERNS0_10ValueUnionERKS2_, @function
_ZN4juce3var11VariantType16objectCreateCopyERNS0_10ValueUnionERKS2_:
.LFB12876:
	.cfi_startproc
	movq	(%rsi), %rax
	movq	%rax, (%rdi)
	testq	%rax, %rax
	je	.L831
	lock addl	$1, 8(%rax)
.L831:
	ret
	.cfi_endproc
.LFE12876:
	.size	_ZN4juce3var11VariantType16objectCreateCopyERNS0_10ValueUnionERKS2_, .-_ZN4juce3var11VariantType16objectCreateCopyERNS0_10ValueUnionERKS2_
	.section	.text._ZN4juce3var11VariantType16stringCreateCopyERNS0_10ValueUnionERKS2_,"axG",@progbits,_ZN4juce3var11VariantType16stringCreateCopyERNS0_10ValueUnionERKS2_,comdat
	.p2align 4
	.weak	_ZN4juce3var11VariantType16stringCreateCopyERNS0_10ValueUnionERKS2_
	.type	_ZN4juce3var11VariantType16stringCreateCopyERNS0_10ValueUnionERKS2_, @function
_ZN4juce3var11VariantType16stringCreateCopyERNS0_10ValueUnionERKS2_:
.LFB12865:
	.cfi_startproc
	movq	(%rsi), %rax
	leaq	16+_ZN4juceL11emptyStringE(%rip), %rdx
	movq	%rax, (%rdi)
	cmpq	%rdx, %rax
	je	.L836
	lock addl	$1, -16(%rax)
.L836:
	ret
	.cfi_endproc
.LFE12865:
	.size	_ZN4juce3var11VariantType16stringCreateCopyERNS0_10ValueUnionERKS2_, .-_ZN4juce3var11VariantType16stringCreateCopyERNS0_10ValueUnionERKS2_
	.section	.text._ZN4juce3var11VariantType14stringToStringERKNS0_10ValueUnionE,"axG",@progbits,_ZN4juce3var11VariantType14stringToStringERKNS0_10ValueUnionE,comdat
	.p2align 4
	.weak	_ZN4juce3var11VariantType14stringToStringERKNS0_10ValueUnionE
	.type	_ZN4juce3var11VariantType14stringToStringERKNS0_10ValueUnionE, @function
_ZN4juce3var11VariantType14stringToStringERKNS0_10ValueUnionE:
.LFB12862:
	.cfi_startproc
	movq	(%rsi), %rax
	leaq	16+_ZN4juceL11emptyStringE(%rip), %rdx
	movq	%rax, (%rdi)
	cmpq	%rdx, %rax
	je	.L838
	lock addl	$1, -16(%rax)
.L838:
	movq	%rdi, %rax
	ret
	.cfi_endproc
.LFE12862:
	.size	_ZN4juce3var11VariantType14stringToStringERKNS0_10ValueUnionE, .-_ZN4juce3var11VariantType14stringToStringERKNS0_10ValueUnionE
	.section	.text._ZNK4juce15AndroidDocument5Utils24AndroidDocumentPimplFile5cloneEv,"axG",@progbits,_ZNK4juce15AndroidDocument5Utils24AndroidDocumentPimplFile5cloneEv,comdat
	.align 2
	.p2align 4
	.weak	_ZNK4juce15AndroidDocument5Utils24AndroidDocumentPimplFile5cloneEv
	.type	_ZNK4juce15AndroidDocument5Utils24AndroidDocumentPimplFile5cloneEv, @function
_ZNK4juce15AndroidDocument5Utils24AndroidDocumentPimplFile5cloneEv:
.LFB13939:
	.cfi_startproc
	pushq	%rbp
	.cfi_def_cfa_offset 16
	.cfi_offset 6, -16
	movq	%rsi, %rbp
	pushq	%rbx
	.cfi_def_cfa_offset 24
	.cfi_offset 3, -24
	movq	%rdi, %rbx
	movl	$24, %edi
	subq	$8, %rsp
	.cfi_def_cfa_offset 32
	call	_Znwm@PLT
	leaq	16+_ZN4juceL11emptyStringE(%rip), %rcx
	movq	%rax, %rdx
	leaq	16+_ZTVN4juce15AndroidDocument5Utils24AndroidDocumentPimplFileE(%rip), %rax
	movq	%rax, (%rdx)
	movq	8(%rbp), %rax
	movq	%rax, 8(%rdx)
	cmpq	%rcx, %rax
	je	.L841
	lock addl	$1, -16(%rax)
.L841:
	movq	%rdx, (%rbx)
	addq	$8, %rsp
	.cfi_def_cfa_offset 24
	movq	%rbx, %rax
	popq	%rbx
	.cfi_def_cfa_offset 16
	popq	%rbp
	.cfi_def_cfa_offset 8
	ret
	.cfi_endproc
.LFE13939:
	.size	_ZNK4juce15AndroidDocument5Utils24AndroidDocumentPimplFile5cloneEv, .-_ZNK4juce15AndroidDocument5Utils24AndroidDocumentPimplFile5cloneEv
	.section	.text._ZN4juce24NumberToStringConverters16StackArrayStreamD2Ev,"axG",@progbits,_ZN4juce24NumberToStringConverters16StackArrayStreamD5Ev,comdat
	.align 2
	.p2align 4
	.weak	_ZN4juce24NumberToStringConverters16StackArrayStreamD2Ev
	.type	_ZN4juce24NumberToStringConverters16StackArrayStreamD2Ev, @function
_ZN4juce24NumberToStringConverters16StackArrayStreamD2Ev:
.LFB11883:
	.cfi_startproc
	leaq	16+_ZTVSt15basic_streambufIcSt11char_traitsIcEE(%rip), %rax
	addq	$56, %rdi
	movq	%rax, -56(%rdi)
	jmp	_ZNSt6localeD1Ev@PLT
	.cfi_endproc
.LFE11883:
	.size	_ZN4juce24NumberToStringConverters16StackArrayStreamD2Ev, .-_ZN4juce24NumberToStringConverters16StackArrayStreamD2Ev
	.weak	_ZN4juce24NumberToStringConverters16StackArrayStreamD1Ev
	.set	_ZN4juce24NumberToStringConverters16StackArrayStreamD1Ev,_ZN4juce24NumberToStringConverters16StackArrayStreamD2Ev
	.section	.text._ZN4juce24NumberToStringConverters16StackArrayStreamD0Ev,"axG",@progbits,_ZN4juce24NumberToStringConverters16StackArrayStreamD5Ev,comdat
	.align 2
	.p2align 4
	.weak	_ZN4juce24NumberToStringConverters16StackArrayStreamD0Ev
	.type	_ZN4juce24NumberToStringConverters16StackArrayStreamD0Ev, @function
_ZN4juce24NumberToStringConverters16StackArrayStreamD0Ev:
.LFB11885:
	.cfi_startproc
	leaq	16+_ZTVSt15basic_streambufIcSt11char_traitsIcEE(%rip), %rax
	pushq	%rbx
	.cfi_def_cfa_offset 16
	.cfi_offset 3, -16
	movq	%rdi, %rbx
	leaq	56(%rdi), %rdi
	movq	%rax, -56(%rdi)
	call	_ZNSt6localeD1Ev@PLT
	movq	%rbx, %rdi
	movl	$64, %esi
	popq	%rbx
	.cfi_def_cfa_offset 8
	jmp	_ZdlPvm@PLT
	.cfi_endproc
.LFE11885:
	.size	_ZN4juce24NumberToStringConverters16StackArrayStreamD0Ev, .-_ZN4juce24NumberToStringConverters16StackArrayStreamD0Ev
	.section	.text._ZN4juce3var11VariantType11stringToIntERKNS0_10ValueUnionE,"axG",@progbits,_ZN4juce3var11VariantType11stringToIntERKNS0_10ValueUnionE,comdat
	.p2align 4
	.weak	_ZN4juce3var11VariantType11stringToIntERKNS0_10ValueUnionE
	.type	_ZN4juce3var11VariantType11stringToIntERKNS0_10ValueUnionE, @function
_ZN4juce3var11VariantType11stringToIntERKNS0_10ValueUnionE:
.LFB12859:
	.cfi_startproc
	subq	$8, %rsp
	.cfi_def_cfa_offset 16
	movq	(%rdi), %rdi
	movl	$10, %edx
	xorl	%esi, %esi
	call	__isoc23_strtol@PLT
	addq	$8, %rsp
	.cfi_def_cfa_offset 8
	ret
	.cfi_endproc
.LFE12859:
	.size	_ZN4juce3var11VariantType11stringToIntERKNS0_10ValueUnionE, .-_ZN4juce3var11VariantType11stringToIntERKNS0_10ValueUnionE
	.section	.text._ZN4juce3var11VariantType13stringToInt64ERKNS0_10ValueUnionE,"axG",@progbits,_ZN4juce3var11VariantType13stringToInt64ERKNS0_10ValueUnionE,comdat
	.p2align 4
	.weak	_ZN4juce3var11VariantType13stringToInt64ERKNS0_10ValueUnionE
	.type	_ZN4juce3var11VariantType13stringToInt64ERKNS0_10ValueUnionE, @function
_ZN4juce3var11VariantType13stringToInt64ERKNS0_10ValueUnionE:
.LFB12860:
	.cfi_startproc
	movq	(%rdi), %rdi
	movl	$10, %edx
	xorl	%esi, %esi
	jmp	__isoc23_strtoll@PLT
	.cfi_endproc
.LFE12860:
	.size	_ZN4juce3var11VariantType13stringToInt64ERKNS0_10ValueUnionE, .-_ZN4juce3var11VariantType13stringToInt64ERKNS0_10ValueUnionE
	.section	.text._ZN4juce3var11VariantType12arrayToArrayERKNS0_10ValueUnionE,"axG",@progbits,_ZN4juce3var11VariantType12arrayToArrayERKNS0_10ValueUnionE,comdat
	.p2align 4
	.weak	_ZN4juce3var11VariantType12arrayToArrayERKNS0_10ValueUnionE
	.type	_ZN4juce3var11VariantType12arrayToArrayERKNS0_10ValueUnionE, @function
_ZN4juce3var11VariantType12arrayToArrayERKNS0_10ValueUnionE:
.LFB12884:
	.cfi_startproc
	movq	(%rdi), %rax
	testq	%rax, %rax
	je	.L857
	subq	$8, %rsp
	.cfi_def_cfa_offset 16
	xorl	%ecx, %ecx
	leaq	_ZTIN4juce3var11VariantType15RefCountedArrayE(%rip), %rdx
	movq	%rax, %rdi
	leaq	_ZTIN4juce22ReferenceCountedObjectE(%rip), %rsi
	call	__dynamic_cast@PLT
	movq	%rax, %rdx
	leaq	16(%rax), %rax
	testq	%rdx, %rdx
	cmove	%rdx, %rax
	addq	$8, %rsp
	.cfi_def_cfa_offset 8
	ret
	.p2align 4,,10
	.p2align 3
.L857:
	ret
	.cfi_endproc
.LFE12884:
	.size	_ZN4juce3var11VariantType12arrayToArrayERKNS0_10ValueUnionE, .-_ZN4juce3var11VariantType12arrayToArrayERKNS0_10ValueUnionE
	.text
	.p2align 4
	.type	_ZN4juce11TimeHelpersL13millisToLocalEx, @function
_ZN4juce11TimeHelpersL13millisToLocalEx:
.LFB12666:
	.cfi_startproc
	movabsq	$2361183241434822607, %rax
	pushq	%rbx
	.cfi_def_cfa_offset 16
	.cfi_offset 3, -16
	imulq	%rsi
	sarq	$63, %rsi
	subq	$16, %rsp
	.cfi_def_cfa_offset 32
	movq	%fs:40, %rbx
	movq	%rbx, 8(%rsp)
	movq	%rdi, %rbx
	sarq	$7, %rdx
	movq	%rsp, %rdi
	subq	%rsi, %rdx
	movq	%rdx, (%rsp)
	movq	%rbx, %rsi
	call	localtime_r@PLT
	testq	%rax, %rax
	je	.L864
.L860:
	movq	8(%rsp), %rax
	subq	%fs:40, %rax
	jne	.L865
	addq	$16, %rsp
	.cfi_remember_state
	.cfi_def_cfa_offset 16
	movq	%rbx, %rax
	popq	%rbx
	.cfi_def_cfa_offset 8
	ret
	.p2align 4,,10
	.p2align 3
.L864:
	.cfi_restore_state
	pxor	%xmm0, %xmm0
	movq	$0, 48(%rbx)
	movups	%xmm0, (%rbx)
	movups	%xmm0, 16(%rbx)
	movups	%xmm0, 32(%rbx)
	jmp	.L860
.L865:
	call	__stack_chk_fail@PLT
	.cfi_endproc
.LFE12666:
	.size	_ZN4juce11TimeHelpersL13millisToLocalEx, .-_ZN4juce11TimeHelpersL13millisToLocalEx
	.section	.text.unlikely
	.type	_ZN4juce15HeapBlockHelper11ThrowOnFailILb1EE12checkPointerEPv.part.0, @function
_ZN4juce15HeapBlockHelper11ThrowOnFailILb1EE12checkPointerEPv.part.0:
.LFB21590:
	.cfi_startproc
	pushq	%rax
	.cfi_def_cfa_offset 16
	movl	$8, %edi
	call	__cxa_allocate_exception@PLT
	leaq	16+_ZTVSt9bad_alloc(%rip), %rcx
	movq	_ZNSt9bad_allocD1Ev@GOTPCREL(%rip), %rdx
	leaq	_ZTISt9bad_alloc(%rip), %rsi
	movq	%rcx, (%rax)
	movq	%rax, %rdi
	call	__cxa_throw@PLT
	.cfi_endproc
.LFE21590:
	.size	_ZN4juce15HeapBlockHelper11ThrowOnFailILb1EE12checkPointerEPv.part.0, .-_ZN4juce15HeapBlockHelper11ThrowOnFailILb1EE12checkPointerEPv.part.0
	.text
	.align 2
	.p2align 4
	.type	_ZNK4juce10BigInteger10isNegativeEv.part.0, @function
_ZNK4juce10BigInteger10isNegativeEv.part.0:
.LFB21616:
	.cfi_startproc
	movq	(%rdi), %rdx
	leaq	8(%rdi), %rax
	testq	%rdx, %rdx
	cmove	%rax, %rdx
	movl	32(%rdi), %eax
	sarl	$5, %eax
	js	.L873
	movl	%eax, %eax
	leaq	(%rdx,%rax,4), %rax
	subq	$4, %rdx
	jmp	.L872
	.p2align 4
	.p2align 4,,10
	.p2align 3
.L876:
	subq	$4, %rax
	cmpq	%rdx, %rax
	je	.L873
.L872:
	movl	(%rax), %ecx
	testl	%ecx, %ecx
	je	.L876
	movl	$1, %eax
	ret
	.p2align 4,,10
	.p2align 3
.L873:
	xorl	%eax, %eax
	ret
	.cfi_endproc
.LFE21616:
	.size	_ZNK4juce10BigInteger10isNegativeEv.part.0, .-_ZNK4juce10BigInteger10isNegativeEv.part.0
	.align 2
	.p2align 4
	.type	_ZN4juce10BigInteger8clearBitEi.part.0, @function
_ZN4juce10BigInteger8clearBitEi.part.0:
.LFB21617:
	.cfi_startproc
	movq	%rdi, %r8
	movl	$-2, %eax
	movq	(%rdi), %rdi
	movl	%esi, %ecx
	roll	%cl, %eax
	movl	%eax, %edx
	testq	%rdi, %rdi
	leaq	8(%r8), %rax
	cmove	%rax, %rdi
	movl	%esi, %eax
	sarl	$5, %eax
	andl	%edx, (%rdi,%rax,4)
	cmpl	32(%r8), %esi
	je	.L882
	ret
	.p2align 5
	.p2align 4,,10
	.p2align 3
.L882:
	movl	(%rdi,%rax,4), %edx
	testl	%edx, %edx
	jne	.L884
	subq	$1, %rax
	movl	%eax, %edx
	cmpl	$-1, %eax
	jne	.L882
	movl	%edx, 32(%r8)
	ret
	.p2align 4,,10
	.p2align 3
.L884:
	bsrl	%edx, %edx
	sall	$5, %eax
	addl	%eax, %edx
	movl	%edx, 32(%r8)
	ret
	.cfi_endproc
.LFE21617:
	.size	_ZN4juce10BigInteger8clearBitEi.part.0, .-_ZN4juce10BigInteger8clearBitEi.part.0
	.align 2
	.p2align 4
	.type	_ZNK4juce4File20setFileTimesInternalExxx.part.0, @function
_ZNK4juce4File20setFileTimesInternalExxx.part.0:
.LFB21619:
	.cfi_startproc
	subq	$216, %rsp
	.cfi_def_cfa_offset 224
	movq	%fs:40, %rcx
	movq	%rcx, 200(%rsp)
	movq	%rdi, %rcx
	movq	(%rdi), %rdi
	cmpb	$0, (%rdi)
	jne	.L886
.L888:
	xorl	%eax, %eax
.L885:
	movq	200(%rsp), %rdx
	subq	%fs:40, %rdx
	jne	.L897
	addq	$216, %rsp
	.cfi_remember_state
	.cfi_def_cfa_offset 8
	ret
	.p2align 4,,10
	.p2align 3
.L886:
	.cfi_restore_state
	movq	%rsi, 16(%rsp)
	leaq	48(%rsp), %rsi
	movq	%rdx, 24(%rsp)
	movq	%rcx, 8(%rsp)
	call	stat64@PLT
	testl	%eax, %eax
	jne	.L888
	movq	24(%rsp), %r9
	movq	120(%rsp), %rdx
	movq	8(%rsp), %rcx
	movq	16(%rsp), %r8
	testq	%r9, %r9
	je	.L890
	movabsq	$2361183241434822607, %rax
	imulq	%r9
	sarq	$63, %r9
	sarq	$7, %rdx
	subq	%r9, %rdx
.L890:
	movq	%rdx, 32(%rsp)
	movq	136(%rsp), %rdx
	testq	%r8, %r8
	je	.L892
	movabsq	$2361183241434822607, %rax
	imulq	%r8
	sarq	$63, %r8
	sarq	$7, %rdx
	subq	%r8, %rdx
.L892:
	movq	(%rcx), %rdi
	leaq	32(%rsp), %rsi
	movq	%rdx, 40(%rsp)
	call	utime@PLT
	testl	%eax, %eax
	sete	%al
	jmp	.L885
.L897:
	call	__stack_chk_fail@PLT
	.cfi_endproc
.LFE21619:
	.size	_ZNK4juce4File20setFileTimesInternalExxx.part.0, .-_ZNK4juce4File20setFileTimesInternalExxx.part.0
	.p2align 4
	.type	_ZN4juce17StringHolderUtils7releaseEPNS_12StringHolderE.part.0, @function
_ZN4juce17StringHolderUtils7releaseEPNS_12StringHolderE.part.0:
.LFB21622:
	.cfi_startproc
	movl	$-1, %eax
	lock xaddl	%eax, (%rdi)
	testl	%eax, %eax
	jne	.L898
	jmp	_ZdaPv@PLT
	.p2align 4,,10
	.p2align 3
.L898:
	ret
	.cfi_endproc
.LFE21622:
	.size	_ZN4juce17StringHolderUtils7releaseEPNS_12StringHolderE.part.0, .-_ZN4juce17StringHolderUtils7releaseEPNS_12StringHolderE.part.0
	.align 2
	.p2align 4
	.globl	_ZN4juce10Expression4Term7negatedEv
	.type	_ZN4juce10Expression4Term7negatedEv, @function
_ZN4juce10Expression4Term7negatedEv:
.LFB10889:
	.cfi_startproc
	pushq	%rbp
	.cfi_def_cfa_offset 16
	.cfi_offset 6, -16
	movq	%rdi, %rbp
	movl	$24, %edi
	pushq	%rbx
	.cfi_def_cfa_offset 24
	.cfi_offset 3, -24
	movq	%rsi, %rbx
	subq	$8, %rsp
	.cfi_def_cfa_offset 32
	call	_Znwm@PLT
	leaq	16+_ZTVN4juce10Expression7Helpers6NegateE(%rip), %rcx
	movq	%rax, %rdx
	movl	8(%rbx), %eax
	movq	%rcx, (%rdx)
	addl	$1, %eax
	movq	%rdx, 0(%rbp)
	movq	%rbx, 16(%rdx)
	movl	$1, 8(%rdx)
	movl	%eax, 8(%rbx)
	jne	.L900
	movq	(%rbx), %rax
	movq	%rbx, %rdi
	call	*8(%rax)
.L900:
	addq	$8, %rsp
	.cfi_def_cfa_offset 24
	movq	%rbp, %rax
	popq	%rbx
	.cfi_def_cfa_offset 16
	popq	%rbp
	.cfi_def_cfa_offset 8
	ret
	.cfi_endproc
.LFE10889:
	.size	_ZN4juce10Expression4Term7negatedEv, .-_ZN4juce10Expression4Term7negatedEv
	.align 2
	.p2align 4
	.type	_ZNK4juce10BigInteger15compareAbsoluteERKS0_.constprop.0, @function
_ZNK4juce10BigInteger15compareAbsoluteERKS0_.constprop.0:
.LFB21815:
	.cfi_startproc
	movq	(%rdi), %rcx
	leaq	8(%rdi), %rax
	testq	%rcx, %rcx
	cmove	%rax, %rcx
	movl	32(%rdi), %eax
	sarl	$5, %eax
	js	.L905
	movl	%eax, %eax
	jmp	.L910
	.p2align 4
	.p2align 4,,10
	.p2align 3
.L906:
	subq	$1, %rax
	testl	%eax, %eax
	js	.L905
.L910:
	movl	(%rcx,%rax,4), %edx
	testl	%edx, %edx
	je	.L906
	movq	(%rsi), %rdi
	testq	%rdi, %rdi
	je	.L907
	movl	(%rdi), %esi
	testl	%esi, %esi
	jne	.L908
.L909:
	movl	$1, %eax
	ret
	.p2align 4,,10
	.p2align 3
.L905:
	movq	(%rsi), %rax
	testq	%rax, %rax
	je	.L911
	movl	(%rax), %eax
	negl	%eax
	sbbl	%eax, %eax
	ret
	.p2align 4,,10
	.p2align 3
.L907:
	movl	8(%rsi), %esi
	testl	%esi, %esi
	je	.L909
.L908:
	bsrl	%edx, %edx
	movl	$31, %edi
	sall	$5, %eax
	xorl	$31, %edx
	movl	%edi, %r8d
	subl	%edx, %r8d
	addl	%r8d, %eax
	bsrl	%esi, %edx
	xorl	$31, %edx
	subl	%edx, %edi
	cmpl	%edi, %eax
	jg	.L909
	movl	$-1, %eax
	jl	.L903
	xorl	%eax, %eax
	cmpl	(%rcx), %esi
	jne	.L921
.L903:
	ret
	.p2align 4,,10
	.p2align 3
.L921:
	sbbl	%eax, %eax
	andl	$2, %eax
	subl	$1, %eax
	ret
	.p2align 4,,10
	.p2align 3
.L911:
	movl	8(%rsi), %eax
	negl	%eax
	sbbl	%eax, %eax
	ret
	.cfi_endproc
.LFE21815:
	.size	_ZNK4juce10BigInteger15compareAbsoluteERKS0_.constprop.0, .-_ZNK4juce10BigInteger15compareAbsoluteERKS0_.constprop.0
	.p2align 4
	.type	_ZN4juce13zlibNamespaceL10pqdownheapEPNS0_14internal_stateEPNS0_9ct_data_sEi.constprop.0, @function
_ZN4juce13zlibNamespaceL10pqdownheapEPNS0_14internal_stateEPNS0_9ct_data_sEi.constprop.0:
.LFB21816:
	.cfi_startproc
	subq	$48, %rsp
	.cfi_def_cfa_offset 56
	movl	5284(%rdi), %r10d
	movq	%rdi, %r8
	movq	%r12, 16(%rsp)
	.cfi_offset 12, -40
	movl	2996(%rdi), %r12d
	cmpl	$1, %r10d
	jle	.L930
	movq	%r13, 24(%rsp)
	.cfi_offset 13, -32
	movslq	%r12d, %r13
	movq	%rsi, %r11
	movl	$1, %edx
	movq	%rbx, (%rsp)
	movl	$2, %eax
	movq	%r14, 32(%rsp)
	movq	%r15, 40(%rsp)
	movq	%rbp, 8(%rsp)
	.cfi_offset 3, -56
	.cfi_offset 14, -24
	.cfi_offset 15, -16
	.cfi_offset 6, -48
	movzwl	(%rsi,%r13,4), %ebp
	.p2align 4
	.p2align 3
.L929:
	movslq	%eax, %rcx
	movslq	2992(%r8,%rcx,4), %rdi
	movzwl	(%r11,%rdi,4), %esi
	movq	%rdi, %r9
	cmpl	%eax, %r10d
	jle	.L935
	leal	1(%rax), %ecx
	movslq	%ecx, %rbx
	movslq	2992(%r8,%rbx,4), %r15
	movzwl	(%r11,%r15,4), %r14d
	movq	%r15, %rbx
	cmpw	%si, %r14w
	jb	.L931
	je	.L926
.L935:
	movl	%eax, %ecx
.L925:
	cmpw	%si, %bp
	jb	.L927
.L938:
	je	.L937
.L928:
	leal	(%rcx,%rcx), %eax
	movl	%r9d, 2992(%r8,%rdx,4)
	cmpl	%r10d, %eax
	jg	.L936
	movslq	%ecx, %rdx
	jmp	.L929
	.p2align 4,,10
	.p2align 3
.L926:
	movzbl	5292(%r8,%r15), %r15d
	cmpb	%r15b, 5292(%r8,%rdi)
	jb	.L935
	movl	%ebx, %r9d
	cmpw	%si, %bp
	jnb	.L938
	.p2align 4
	.p2align 3
.L927:
	movl	%edx, %ecx
.L936:
	movq	(%rsp), %rbx
	.cfi_restore 3
	movq	8(%rsp), %rbp
	.cfi_restore 6
	movq	24(%rsp), %r13
	.cfi_restore 13
	movq	32(%rsp), %r14
	.cfi_restore 14
	movq	40(%rsp), %r15
	.cfi_restore 15
.L923:
	movslq	%ecx, %rcx
	movl	%r12d, 2992(%r8,%rcx,4)
	movq	16(%rsp), %r12
	addq	$48, %rsp
	.cfi_def_cfa_offset 8
	ret
	.p2align 4,,10
	.p2align 3
.L937:
	.cfi_def_cfa_offset 56
	.cfi_offset 3, -56
	.cfi_offset 6, -48
	.cfi_offset 13, -32
	.cfi_offset 14, -24
	.cfi_offset 15, -16
	movzbl	5292(%r8,%r13), %edi
	movslq	%r9d, %rax
	cmpb	%dil, 5292(%r8,%rax)
	jb	.L928
	jmp	.L927
	.p2align 4,,10
	.p2align 3
.L931:
	movl	%r14d, %esi
	movl	%r15d, %r9d
	jmp	.L925
.L930:
	.cfi_restore 3
	.cfi_restore 6
	.cfi_restore 13
	.cfi_restore 14
	.cfi_restore 15
	movl	$1, %ecx
	jmp	.L923
	.cfi_endproc
.LFE21816:
	.size	_ZN4juce13zlibNamespaceL10pqdownheapEPNS0_14internal_stateEPNS0_9ct_data_sEi.constprop.0, .-_ZN4juce13zlibNamespaceL10pqdownheapEPNS0_14internal_stateEPNS0_9ct_data_sEi.constprop.0
	.section	.text._ZN4juce3var11VariantType11int64EqualsERKNS0_10ValueUnionES4_RKS1_,"axG",@progbits,_ZN4juce3var11VariantType11int64EqualsERKNS0_10ValueUnionES4_RKS1_,comdat
	.p2align 4
	.weak	_ZN4juce3var11VariantType11int64EqualsERKNS0_10ValueUnionES4_RKS1_
	.type	_ZN4juce3var11VariantType11int64EqualsERKNS0_10ValueUnionES4_RKS1_, @function
_ZN4juce3var11VariantType11int64EqualsERKNS0_10ValueUnionES4_RKS1_:
.LFB12832:
	.cfi_startproc
	.cfi_personality 0x9b,DW.ref.__gxx_personality_v0
	.cfi_lsda 0x1b,.LLSDA12832
	subq	$152, %rsp
	.cfi_def_cfa_offset 160
	movq	%rdi, %rcx
	movq	%rsi, %rdi
	movq	%fs:40, %rax
	movq	%rax, 136(%rsp)
	movq	%rdx, %rax
	cmpb	$0, 5(%rax)
	jne	.L940
	cmpb	$0, 6(%rax)
	je	.L941
.L940:
	leaq	_ZN4juce3var11VariantType12int64ToInt64ERKNS0_10ValueUnionE(%rip), %rdx
	leaq	_ZN4juce3var11VariantType18int64WriteToStreamERKNS0_10ValueUnionERNS_12OutputStreamE(%rip), %rsi
	movq	.LC11(%rip), %xmm0
	movq	$16777216, 16(%rsp)
	movq	%rdx, %xmm1
	leaq	_ZN4juce3var11VariantType13int64ToStringERKNS0_10ValueUnionE(%rip), %rdx
	movq	%rsi, 128(%rsp)
	movq	%rcx, %rsi
	punpcklqdq	%xmm1, %xmm0
	movq	%rdx, %xmm2
	leaq	_ZN4juce3var11VariantType15defaultToObjectERKNS0_10ValueUnionE(%rip), %rdx
	movl	$16777216, 24(%rsp)
	movaps	%xmm0, 32(%rsp)
	movq	%rdx, %xmm3
	movq	.LC12(%rip), %xmm0
	leaq	_ZN4juce3var11VariantType15defaultToBinaryERKNS0_10ValueUnionE(%rip), %rdx
	movq	%rdx, %xmm4
	leaq	_ZN4juce3var11VariantType14defaultCleanUpERNS0_10ValueUnionE(%rip), %rdx
	punpcklqdq	%xmm2, %xmm0
	movq	%rdx, %xmm5
	leaq	_ZN4juce3var11VariantType11int64EqualsERKNS0_10ValueUnionES4_RKS1_(%rip), %rdx
	movaps	%xmm0, 48(%rsp)
	movq	%rdx, %xmm6
	leaq	16(%rsp), %rdx
	movq	.LC13(%rip), %xmm0
	punpcklqdq	%xmm3, %xmm0
	movaps	%xmm0, 64(%rsp)
	movq	.LC14(%rip), %xmm0
	punpcklqdq	%xmm4, %xmm0
	movaps	%xmm0, 80(%rsp)
	movq	.LC15(%rip), %xmm0
	punpcklqdq	%xmm5, %xmm0
	movaps	%xmm0, 96(%rsp)
	movq	.LC16(%rip), %xmm0
	punpcklqdq	%xmm6, %xmm0
	movaps	%xmm0, 112(%rsp)
	call	*104(%rax)
.L939:
	movq	136(%rsp), %rdx
	subq	%fs:40, %rdx
	jne	.L945
	addq	$152, %rsp
	.cfi_remember_state
	.cfi_def_cfa_offset 8
	ret
	.p2align 4,,10
	.p2align 3
.L941:
	.cfi_restore_state
	movq	%rcx, 8(%rsp)
	call	*24(%rax)
	movq	8(%rsp), %rcx
	cmpq	%rax, (%rcx)
	sete	%al
	jmp	.L939
.L945:
	call	__stack_chk_fail@PLT
	.cfi_endproc
.LFE12832:
	.section	.gcc_except_table._ZN4juce3var11VariantType11int64EqualsERKNS0_10ValueUnionES4_RKS1_,"aG",@progbits,_ZN4juce3var11VariantType11int64EqualsERKNS0_10ValueUnionES4_RKS1_,comdat
.LLSDA12832:
	.byte	0xff
	.byte	0xff
	.byte	0x1
	.uleb128 .LLSDACSE12832-.LLSDACSB12832
.LLSDACSB12832:
.LLSDACSE12832:
	.section	.text._ZN4juce3var11VariantType11int64EqualsERKNS0_10ValueUnionES4_RKS1_,"axG",@progbits,_ZN4juce3var11VariantType11int64EqualsERKNS0_10ValueUnionES4_RKS1_,comdat
	.size	_ZN4juce3var11VariantType11int64EqualsERKNS0_10ValueUnionES4_RKS1_, .-_ZN4juce3var11VariantType11int64EqualsERKNS0_10ValueUnionES4_RKS1_
	.section	.text._ZN4juce3var11VariantType9intEqualsERKNS0_10ValueUnionES4_RKS1_,"axG",@progbits,_ZN4juce3var11VariantType9intEqualsERKNS0_10ValueUnionES4_RKS1_,comdat
	.p2align 4
	.weak	_ZN4juce3var11VariantType9intEqualsERKNS0_10ValueUnionES4_RKS1_
	.type	_ZN4juce3var11VariantType9intEqualsERKNS0_10ValueUnionES4_RKS1_, @function
_ZN4juce3var11VariantType9intEqualsERKNS0_10ValueUnionES4_RKS1_:
.LFB12822:
	.cfi_startproc
	.cfi_personality 0x9b,DW.ref.__gxx_personality_v0
	.cfi_lsda 0x1b,.LLSDA12822
	subq	$152, %rsp
	.cfi_def_cfa_offset 160
	movq	%rdi, %rcx
	movq	%rsi, %rdi
	movq	%fs:40, %rax
	movq	%rax, 136(%rsp)
	movq	%rdx, %rax
	cmpb	$0, 5(%rax)
	jne	.L947
	cmpb	$0, 3(%rax)
	je	.L952
.L947:
	leaq	_ZN4juce3var11VariantType10intToInt64ERKNS0_10ValueUnionE(%rip), %rdx
	leaq	_ZN4juce3var11VariantType16intWriteToStreamERKNS0_10ValueUnionERNS_12OutputStreamE(%rip), %rsi
	movq	.LC18(%rip), %xmm0
	movq	$65536, 16(%rsp)
	movq	%rdx, %xmm1
	leaq	_ZN4juce3var11VariantType11intToStringERKNS0_10ValueUnionE(%rip), %rdx
	movq	%rsi, 128(%rsp)
	movq	%rcx, %rsi
	punpcklqdq	%xmm1, %xmm0
	movq	%rdx, %xmm2
	leaq	_ZN4juce3var11VariantType15defaultToObjectERKNS0_10ValueUnionE(%rip), %rdx
	movl	$16777216, 24(%rsp)
	movaps	%xmm0, 32(%rsp)
	movq	%rdx, %xmm3
	movq	.LC19(%rip), %xmm0
	leaq	_ZN4juce3var11VariantType15defaultToBinaryERKNS0_10ValueUnionE(%rip), %rdx
	movq	%rdx, %xmm4
	leaq	_ZN4juce3var11VariantType14defaultCleanUpERNS0_10ValueUnionE(%rip), %rdx
	punpcklqdq	%xmm2, %xmm0
	movq	%rdx, %xmm5
	leaq	_ZN4juce3var11VariantType9intEqualsERKNS0_10ValueUnionES4_RKS1_(%rip), %rdx
	movaps	%xmm0, 48(%rsp)
	movq	%rdx, %xmm6
	leaq	16(%rsp), %rdx
	movq	.LC20(%rip), %xmm0
	punpcklqdq	%xmm3, %xmm0
	movaps	%xmm0, 64(%rsp)
	movq	.LC14(%rip), %xmm0
	punpcklqdq	%xmm4, %xmm0
	movaps	%xmm0, 80(%rsp)
	movq	.LC15(%rip), %xmm0
	punpcklqdq	%xmm5, %xmm0
	movaps	%xmm0, 96(%rsp)
	movq	.LC16(%rip), %xmm0
	punpcklqdq	%xmm6, %xmm0
	movaps	%xmm0, 112(%rsp)
	call	*104(%rax)
.L946:
	movq	136(%rsp), %rdx
	subq	%fs:40, %rdx
	jne	.L953
	addq	$152, %rsp
	.cfi_remember_state
	.cfi_def_cfa_offset 8
	ret
	.p2align 4,,10
	.p2align 3
.L952:
	.cfi_restore_state
	cmpb	$0, 6(%rax)
	jne	.L947
	movq	%rcx, 8(%rsp)
	call	*16(%rax)
	movq	8(%rsp), %rcx
	cmpl	%eax, (%rcx)
	sete	%al
	jmp	.L946
.L953:
	call	__stack_chk_fail@PLT
	.cfi_endproc
.LFE12822:
	.section	.gcc_except_table._ZN4juce3var11VariantType9intEqualsERKNS0_10ValueUnionES4_RKS1_,"aG",@progbits,_ZN4juce3var11VariantType9intEqualsERKNS0_10ValueUnionES4_RKS1_,comdat
.LLSDA12822:
	.byte	0xff
	.byte	0xff
	.byte	0x1
	.uleb128 .LLSDACSE12822-.LLSDACSB12822
.LLSDACSB12822:
.LLSDACSE12822:
	.section	.text._ZN4juce3var11VariantType9intEqualsERKNS0_10ValueUnionES4_RKS1_,"axG",@progbits,_ZN4juce3var11VariantType9intEqualsERKNS0_10ValueUnionES4_RKS1_,comdat
	.size	_ZN4juce3var11VariantType9intEqualsERKNS0_10ValueUnionES4_RKS1_, .-_ZN4juce3var11VariantType9intEqualsERKNS0_10ValueUnionES4_RKS1_
	.text
	.p2align 4
	.type	_ZNSt17_Function_handlerIFvRKN4juce12ArgumentListEEZNS0_18ConsoleApplication17addVersionCommandENS0_6StringES6_EUlS3_E_E10_M_managerERSt9_Any_dataRKS9_St18_Manager_operation, @function
_ZNSt17_Function_handlerIFvRKN4juce12ArgumentListEEZNS0_18ConsoleApplication17addVersionCommandENS0_6StringES6_EUlS3_E_E10_M_managerERSt9_Any_dataRKS9_St18_Manager_operation:
.LFB17443:
	.cfi_startproc
	testl	%edx, %edx
	je	.L955
	cmpl	$1, %edx
	je	.L956
	subq	$24, %rsp
	.cfi_def_cfa_offset 32
	cmpl	$2, %edx
	je	.L959
	cmpl	$3, %edx
	je	.L960
.L958:
	xorl	%eax, %eax
	addq	$24, %rsp
	.cfi_def_cfa_offset 8
	ret
	.p2align 4,,10
	.p2align 3
.L956:
	movq	(%rsi), %rax
	movq	%rax, (%rdi)
	xorl	%eax, %eax
	ret
	.p2align 4,,10
	.p2align 3
.L955:
	leaq	_ZTIZN4juce18ConsoleApplication17addVersionCommandENS_6StringES1_EUlRKNS_12ArgumentListEE_(%rip), %rax
	movq	%rax, (%rdi)
	xorl	%eax, %eax
	ret
	.p2align 4,,10
	.p2align 3
.L960:
	.cfi_def_cfa_offset 32
	movq	(%rdi), %rax
	testq	%rax, %rax
	je	.L958
	movq	(%rax), %rcx
	leaq	_ZN4juceL11emptyStringE(%rip), %rdx
	leaq	-16(%rcx), %rdi
	cmpq	%rdx, %rdi
	je	.L962
	movq	%rax, (%rsp)
	call	_ZN4juce17StringHolderUtils7releaseEPNS_12StringHolderE.part.0
	movq	(%rsp), %rax
.L962:
	movl	$8, %esi
	movq	%rax, %rdi
	call	_ZdlPvm@PLT
	jmp	.L958
	.p2align 4,,10
	.p2align 3
.L959:
	movq	(%rsi), %rsi
	movq	%rdi, 8(%rsp)
	movl	$8, %edi
	movq	%rsi, (%rsp)
	call	_Znwm@PLT
	movq	(%rsp), %rsi
	movq	8(%rsp), %rcx
	movq	%rax, %rdx
	movq	(%rsi), %rax
	leaq	16+_ZN4juceL11emptyStringE(%rip), %rsi
	cmpq	%rsi, %rax
	movq	%rax, (%rdx)
	je	.L961
	lock addl	$1, -16(%rax)
.L961:
	movq	%rdx, (%rcx)
	jmp	.L958
	.cfi_endproc
.LFE17443:
	.size	_ZNSt17_Function_handlerIFvRKN4juce12ArgumentListEEZNS0_18ConsoleApplication17addVersionCommandENS0_6StringES6_EUlS3_E_E10_M_managerERSt9_Any_dataRKS9_St18_Manager_operation, .-_ZNSt17_Function_handlerIFvRKN4juce12ArgumentListEEZNS0_18ConsoleApplication17addVersionCommandENS0_6StringES6_EUlS3_E_E10_M_managerERSt9_Any_dataRKS9_St18_Manager_operation
	.p2align 4
	.type	_ZNSt17_Function_handlerIFvRKN4juce12ArgumentListEEZNS0_18ConsoleApplication14addHelpCommandENS0_6StringES6_bEUlS3_E_E10_M_managerERSt9_Any_dataRKS9_St18_Manager_operation, @function
_ZNSt17_Function_handlerIFvRKN4juce12ArgumentListEEZNS0_18ConsoleApplication14addHelpCommandENS0_6StringES6_bEUlS3_E_E10_M_managerERSt9_Any_dataRKS9_St18_Manager_operation:
.LFB17436:
	.cfi_startproc
	testl	%edx, %edx
	je	.L972
	cmpl	$1, %edx
	je	.L973
	subq	$24, %rsp
	.cfi_def_cfa_offset 32
	cmpl	$2, %edx
	je	.L976
	cmpl	$3, %edx
	je	.L977
.L975:
	xorl	%eax, %eax
	addq	$24, %rsp
	.cfi_def_cfa_offset 8
	ret
	.p2align 4,,10
	.p2align 3
.L973:
	movq	(%rsi), %rax
	movq	%rax, (%rdi)
	xorl	%eax, %eax
	ret
	.p2align 4,,10
	.p2align 3
.L972:
	leaq	_ZTIZN4juce18ConsoleApplication14addHelpCommandENS_6StringES1_bEUlRKNS_12ArgumentListEE_(%rip), %rax
	movq	%rax, (%rdi)
	xorl	%eax, %eax
	ret
	.p2align 4,,10
	.p2align 3
.L977:
	.cfi_def_cfa_offset 32
	movq	(%rdi), %rax
	testq	%rax, %rax
	je	.L975
	movq	8(%rax), %rcx
	leaq	_ZN4juceL11emptyStringE(%rip), %rdx
	leaq	-16(%rcx), %rdi
	cmpq	%rdx, %rdi
	je	.L979
	movq	%rax, (%rsp)
	call	_ZN4juce17StringHolderUtils7releaseEPNS_12StringHolderE.part.0
	movq	(%rsp), %rax
.L979:
	movl	$16, %esi
	movq	%rax, %rdi
	call	_ZdlPvm@PLT
	jmp	.L975
	.p2align 4,,10
	.p2align 3
.L976:
	movq	(%rsi), %rsi
	movq	%rdi, 8(%rsp)
	movl	$16, %edi
	movq	%rsi, (%rsp)
	call	_Znwm@PLT
	movq	(%rsp), %rsi
	movq	8(%rsp), %rcx
	movq	%rax, %rdx
	movq	(%rsi), %rax
	movq	%rax, (%rdx)
	movq	8(%rsi), %rax
	leaq	16+_ZN4juceL11emptyStringE(%rip), %rsi
	cmpq	%rsi, %rax
	movq	%rax, 8(%rdx)
	je	.L978
	lock addl	$1, -16(%rax)
.L978:
	movq	%rdx, (%rcx)
	jmp	.L975
	.cfi_endproc
.LFE17436:
	.size	_ZNSt17_Function_handlerIFvRKN4juce12ArgumentListEEZNS0_18ConsoleApplication14addHelpCommandENS0_6StringES6_bEUlS3_E_E10_M_managerERSt9_Any_dataRKS9_St18_Manager_operation, .-_ZNSt17_Function_handlerIFvRKN4juce12ArgumentListEEZNS0_18ConsoleApplication14addHelpCommandENS0_6StringES6_bEUlS3_E_E10_M_managerERSt9_Any_dataRKS9_St18_Manager_operation
	.p2align 4
	.type	_ZNSt17_Function_handlerIFivEZNK4juce18ConsoleApplication17findAndRunCommandERKNS1_12ArgumentListEbEUlvE_E10_M_managerERSt9_Any_dataRKS8_St18_Manager_operation, @function
_ZNSt17_Function_handlerIFivEZNK4juce18ConsoleApplication17findAndRunCommandERKNS1_12ArgumentListEbEUlvE_E10_M_managerERSt9_Any_dataRKS8_St18_Manager_operation:
.LFB17413:
	.cfi_startproc
	testl	%edx, %edx
	je	.L989
	cmpl	$1, %edx
	je	.L990
	subq	$24, %rsp
	.cfi_def_cfa_offset 32
	cmpl	$2, %edx
	je	.L993
	cmpl	$3, %edx
	je	.L994
.L992:
	xorl	%eax, %eax
	addq	$24, %rsp
	.cfi_def_cfa_offset 8
	ret
	.p2align 4,,10
	.p2align 3
.L990:
	movq	(%rsi), %rax
	movq	%rax, (%rdi)
	xorl	%eax, %eax
	ret
	.p2align 4,,10
	.p2align 3
.L989:
	leaq	_ZTIZNK4juce18ConsoleApplication17findAndRunCommandERKNS_12ArgumentListEbEUlvE_(%rip), %rax
	movq	%rax, (%rdi)
	xorl	%eax, %eax
	ret
	.p2align 4,,10
	.p2align 3
.L994:
	.cfi_def_cfa_offset 32
	movq	(%rdi), %rdi
	testq	%rdi, %rdi
	je	.L992
	movl	$24, %esi
	call	_ZdlPvm@PLT
	jmp	.L992
	.p2align 4,,10
	.p2align 3
.L993:
	movq	(%rsi), %rdx
	movq	%rdi, 8(%rsp)
	movl	$24, %edi
	movq	%rdx, (%rsp)
	call	_Znwm@PLT
	movq	(%rsp), %rdx
	movq	8(%rsp), %rcx
	movdqu	(%rdx), %xmm0
	movups	%xmm0, (%rax)
	movq	16(%rdx), %rdx
	movq	%rax, (%rcx)
	movq	%rdx, 16(%rax)
	jmp	.L992
	.cfi_endproc
.LFE17413:
	.size	_ZNSt17_Function_handlerIFivEZNK4juce18ConsoleApplication17findAndRunCommandERKNS1_12ArgumentListEbEUlvE_E10_M_managerERSt9_Any_dataRKS8_St18_Manager_operation, .-_ZNSt17_Function_handlerIFivEZNK4juce18ConsoleApplication17findAndRunCommandERKNS1_12ArgumentListEbEUlvE_E10_M_managerERSt9_Any_dataRKS8_St18_Manager_operation
	.section	.text._ZN4juce3URL6UploadD2Ev,"axG",@progbits,_ZN4juce3URL6UploadD5Ev,comdat
	.align 2
	.p2align 4
	.weak	_ZN4juce3URL6UploadD2Ev
	.type	_ZN4juce3URL6UploadD2Ev, @function
_ZN4juce3URL6UploadD2Ev:
.LFB19244:
	.cfi_startproc
	pushq	%rbp
	.cfi_def_cfa_offset 16
	.cfi_offset 6, -16
	leaq	16+_ZTVN4juce3URL6UploadE(%rip), %rax
	pushq	%rbx
	.cfi_def_cfa_offset 24
	.cfi_offset 3, -24
	movq	%rdi, %rbx
	subq	$8, %rsp
	.cfi_def_cfa_offset 32
	movq	48(%rdi), %rbp
	movq	%rax, (%rdi)
	testq	%rbp, %rbp
	je	.L1004
	movq	0(%rbp), %rdi
	call	free@PLT
	movl	$16, %esi
	movq	%rbp, %rdi
	call	_ZdlPvm@PLT
.L1004:
	movq	40(%rbx), %rax
	leaq	_ZN4juceL11emptyStringE(%rip), %rbp
	leaq	-16(%rax), %rdi
	cmpq	%rbp, %rdi
	je	.L1005
	call	_ZN4juce17StringHolderUtils7releaseEPNS_12StringHolderE.part.0
.L1005:
	movq	32(%rbx), %rax
	leaq	-16(%rax), %rdi
	cmpq	%rbp, %rdi
	je	.L1006
	call	_ZN4juce17StringHolderUtils7releaseEPNS_12StringHolderE.part.0
.L1006:
	movq	24(%rbx), %rax
	leaq	-16(%rax), %rdi
	cmpq	%rbp, %rdi
	je	.L1007
	call	_ZN4juce17StringHolderUtils7releaseEPNS_12StringHolderE.part.0
.L1007:
	movq	16(%rbx), %rdi
	subq	$16, %rdi
	cmpq	%rbp, %rdi
	je	.L1003
	addq	$8, %rsp
	.cfi_remember_state
	.cfi_def_cfa_offset 24
	popq	%rbx
	.cfi_def_cfa_offset 16
	popq	%rbp
	.cfi_def_cfa_offset 8
	jmp	_ZN4juce17StringHolderUtils7releaseEPNS_12StringHolderE.part.0
	.p2align 4,,10
	.p2align 3
.L1003:
	.cfi_restore_state
	addq	$8, %rsp
	.cfi_def_cfa_offset 24
	popq	%rbx
	.cfi_def_cfa_offset 16
	popq	%rbp
	.cfi_def_cfa_offset 8
	ret
	.cfi_endproc
.LFE19244:
	.size	_ZN4juce3URL6UploadD2Ev, .-_ZN4juce3URL6UploadD2Ev
	.weak	_ZN4juce3URL6UploadD1Ev
	.set	_ZN4juce3URL6UploadD1Ev,_ZN4juce3URL6UploadD2Ev
	.text
	.p2align 4
	.type	_ZN4juce13SocketHelpersL16waitForReadinessERSt6atomicIiERNS_15CriticalSectionEbi, @function
_ZN4juce13SocketHelpersL16waitForReadinessERSt6atomicIiERNS_15CriticalSectionEbi:
.LFB11418:
	.cfi_startproc
	.cfi_personality 0x9b,DW.ref.__gxx_personality_v0
	.cfi_lsda 0x1b,.LLSDA11418
	pushq	%r14
	.cfi_def_cfa_offset 16
	.cfi_offset 14, -16
	movl	%edx, %r14d
	pushq	%r13
	.cfi_def_cfa_offset 24
	.cfi_offset 13, -24
	movq	%rdi, %r13
	movq	%rsi, %rdi
	pushq	%r12
	.cfi_def_cfa_offset 32
	.cfi_offset 12, -32
	movq	%rsi, %r12
	pushq	%rbp
	.cfi_def_cfa_offset 40
	.cfi_offset 6, -40
	movl	$-1, %ebp
	pushq	%rbx
	.cfi_def_cfa_offset 48
	.cfi_offset 3, -48
	subq	$32, %rsp
	.cfi_def_cfa_offset 80
	movq	%fs:40, %rbx
	movq	%rbx, 24(%rsp)
	movl	%ecx, %ebx
	call	pthread_mutex_trylock@PLT
	testl	%eax, %eax
	jne	.L1013
	cmpb	$1, %r14b
	sbbl	%ebp, %ebp
	xorl	%edx, %edx
	movl	0(%r13), %eax
	andl	$3, %ebp
	addl	$1, %ebp
	movw	%dx, 22(%rsp)
	movl	%eax, 16(%rsp)
	movw	%bp, 20(%rsp)
	jmp	.L1018
	.p2align 4,,10
	.p2align 3
.L1030:
	call	__errno_location@PLT
	cmpl	$4, (%rax)
	jne	.L1017
.L1018:
	movl	%ebx, %edx
	movl	$1, %esi
	leaq	16(%rsp), %rdi
	call	poll@PLT
	testl	%eax, %eax
	js	.L1030
	movl	0(%r13), %edi
	cmpl	$-1, %edi
	je	.L1017
	leaq	8(%rsp), %rcx
	leaq	12(%rsp), %r8
	movl	$4, %edx
	movl	$1, %esi
	movl	$4, 12(%rsp)
	call	getsockopt@PLT
	testl	%eax, %eax
	js	.L1017
	movl	8(%rsp), %eax
	testl	%eax, %eax
	jne	.L1017
	testw	%bp, 22(%rsp)
	movq	%r12, %rdi
	setne	%bpl
	movzbl	%bpl, %ebp
	call	pthread_mutex_unlock@PLT
	.p2align 4
	.p2align 3
.L1013:
	movq	24(%rsp), %rax
	subq	%fs:40, %rax
	jne	.L1031
	addq	$32, %rsp
	.cfi_remember_state
	.cfi_def_cfa_offset 48
	movl	%ebp, %eax
	popq	%rbx
	.cfi_def_cfa_offset 40
	popq	%rbp
	.cfi_def_cfa_offset 32
	popq	%r12
	.cfi_def_cfa_offset 24
	popq	%r13
	.cfi_def_cfa_offset 16
	popq	%r14
	.cfi_def_cfa_offset 8
	ret
	.p2align 4,,10
	.p2align 3
.L1017:
	.cfi_restore_state
	movq	%r12, %rdi
	movl	$-1, %ebp
	call	pthread_mutex_unlock@PLT
	jmp	.L1013
.L1031:
	call	__stack_chk_fail@PLT
	.cfi_endproc
.LFE11418:
	.section	.gcc_except_table
.LLSDA11418:
	.byte	0xff
	.byte	0xff
	.byte	0x1
	.uleb128 .LLSDACSE11418-.LLSDACSB11418
.LLSDACSB11418:
.LLSDACSE11418:
	.text
	.size	_ZN4juce13SocketHelpersL16waitForReadinessERSt6atomicIiERNS_15CriticalSectionEbi, .-_ZN4juce13SocketHelpersL16waitForReadinessERSt6atomicIiERNS_15CriticalSectionEbi
	.align 2
	.p2align 4
	.type	_ZNK4juce16CharPointer_UTF8deEv.isra.0, @function
_ZNK4juce16CharPointer_UTF8deEv.isra.0:
.LFB21829:
	.cfi_startproc
	movsbl	(%rdi), %eax
	testb	%al, %al
	jns	.L1032
	testb	$64, %al
	je	.L1035
	testb	$32, %al
	je	.L1036
	testb	$16, %al
	je	.L1037
	andl	$15, %eax
	movl	$3, %esi
.L1038:
	movzbl	1(%rdi), %edx
	movsbl	%al, %eax
	movl	%edx, %ecx
	andl	$-64, %ecx
	cmpb	$-128, %cl
	jne	.L1032
	andl	$63, %edx
	sall	$6, %eax
	orl	%edx, %eax
	movzbl	2(%rdi), %edx
	movl	%edx, %ecx
	andl	$-64, %ecx
	cmpb	$-128, %cl
	jne	.L1047
	sall	$6, %eax
	andl	$63, %edx
	orl	%edx, %eax
	cmpl	$3, %esi
	jne	.L1032
	movzbl	3(%rdi), %edx
.L1046:
	movl	%edx, %ecx
	movl	%eax, %esi
	andl	$63, %edx
	sall	$6, %esi
	andl	$-64, %ecx
	orl	%esi, %edx
	cmpb	$-128, %cl
	cmove	%edx, %eax
	ret
	.p2align 4,,10
	.p2align 3
.L1032:
	ret
.L1037:
	andl	$31, %eax
	movl	$2, %esi
	jmp	.L1038
.L1035:
	andl	$127, %eax
	ret
.L1036:
	movzbl	1(%rdi), %edx
	andl	$63, %eax
	jmp	.L1046
.L1047:
	ret
	.cfi_endproc
.LFE21829:
	.size	_ZNK4juce16CharPointer_UTF8deEv.isra.0, .-_ZNK4juce16CharPointer_UTF8deEv.isra.0
	.section	.text._ZNSt23_Sp_counted_ptr_inplaceISt6vectorIPN4juce12ListenerListINS1_6Thread8ListenerENS1_5ArrayIPS4_NS1_15CriticalSectionELi0EEEE8IteratorESaISB_EESaIvELN9__gnu_cxx12_Lock_policyE2EE14_M_get_deleterERKSt9type_info,"axG",@progbits,_ZNSt23_Sp_counted_ptr_inplaceISt6vectorIPN4juce12ListenerListINS1_6Thread8ListenerENS1_5ArrayIPS4_NS1_15CriticalSectionELi0EEEE8IteratorESaISB_EESaIvELN9__gnu_cxx12_Lock_policyE2EE14_M_get_deleterERKSt9type_info,comdat
	.align 2
	.p2align 4
	.weak	_ZNSt23_Sp_counted_ptr_inplaceISt6vectorIPN4juce12ListenerListINS1_6Thread8ListenerENS1_5ArrayIPS4_NS1_15CriticalSectionELi0EEEE8IteratorESaISB_EESaIvELN9__gnu_cxx12_Lock_policyE2EE14_M_get_deleterERKSt9type_info
	.type	_ZNSt23_Sp_counted_ptr_inplaceISt6vectorIPN4juce12ListenerListINS1_6Thread8ListenerENS1_5ArrayIPS4_NS1_15CriticalSectionELi0EEEE8IteratorESaISB_EESaIvELN9__gnu_cxx12_Lock_policyE2EE14_M_get_deleterERKSt9type_info, @function
_ZNSt23_Sp_counted_ptr_inplaceISt6vectorIPN4juce12ListenerListINS1_6Thread8ListenerENS1_5ArrayIPS4_NS1_15CriticalSectionELi0EEEE8IteratorESaISB_EESaIvELN9__gnu_cxx12_Lock_policyE2EE14_M_get_deleterERKSt9type_info:
.LFB21473:
	.cfi_startproc
	leaq	_ZZNSt19_Sp_make_shared_tag5_S_tiEvE5__tag(%rip), %rax
	movq	%rdi, %rdx
	cmpq	%rax, %rsi
	je	.L1054
	movq	8(%rsi), %rdi
	leaq	_ZTSSt19_Sp_make_shared_tag(%rip), %rsi
	cmpq	%rsi, %rdi
	je	.L1054
	cmpb	$42, (%rdi)
	je	.L1058
	subq	$24, %rsp
	.cfi_def_cfa_offset 32
	movq	%rdx, 8(%rsp)
	call	strcmp@PLT
	movq	8(%rsp), %rdx
	testl	%eax, %eax
	jne	.L1052
	leaq	16(%rdx), %rax
	addq	$24, %rsp
	.cfi_remember_state
	.cfi_def_cfa_offset 8
	ret
	.p2align 4,,10
	.p2align 3
.L1052:
	.cfi_restore_state
	xorl	%eax, %eax
	addq	$24, %rsp
	.cfi_def_cfa_offset 8
	ret
	.p2align 4,,10
	.p2align 3
.L1054:
	leaq	16(%rdx), %rax
	ret
	.p2align 4,,10
	.p2align 3
.L1058:
	xorl	%eax, %eax
	ret
	.cfi_endproc
.LFE21473:
	.size	_ZNSt23_Sp_counted_ptr_inplaceISt6vectorIPN4juce12ListenerListINS1_6Thread8ListenerENS1_5ArrayIPS4_NS1_15CriticalSectionELi0EEEE8IteratorESaISB_EESaIvELN9__gnu_cxx12_Lock_policyE2EE14_M_get_deleterERKSt9type_info, .-_ZNSt23_Sp_counted_ptr_inplaceISt6vectorIPN4juce12ListenerListINS1_6Thread8ListenerENS1_5ArrayIPS4_NS1_15CriticalSectionELi0EEEE8IteratorESaISB_EESaIvELN9__gnu_cxx12_Lock_policyE2EE14_M_get_deleterERKSt9type_info
	.section	.text._ZN4juce10Expression7Helpers6Negate7resolveERKNS0_5ScopeEi,"axG",@progbits,_ZN4juce10Expression7Helpers6Negate7resolveERKNS0_5ScopeEi,comdat
	.align 2
	.p2align 4
	.weak	_ZN4juce10Expression7Helpers6Negate7resolveERKNS0_5ScopeEi
	.type	_ZN4juce10Expression7Helpers6Negate7resolveERKNS0_5ScopeEi, @function
_ZN4juce10Expression7Helpers6Negate7resolveERKNS0_5ScopeEi:
.LFB10757:
	.cfi_startproc
	.cfi_personality 0x9b,DW.ref.__gxx_personality_v0
	.cfi_lsda 0x1b,.LLSDA10757
	pushq	%r12
	.cfi_def_cfa_offset 16
	.cfi_offset 12, -16
	movq	%rsi, %r12
	pushq	%rbp
	.cfi_def_cfa_offset 24
	.cfi_offset 6, -24
	movq	%rdi, %rbp
	pushq	%rbx
	.cfi_def_cfa_offset 32
	.cfi_offset 3, -32
	subq	$32, %rsp
	.cfi_def_cfa_offset 64
	movq	%rdx, 8(%rsp)
	movl	%ecx, 4(%rsp)
	movq	%fs:40, %rdi
	movq	%rdi, 24(%rsp)
	movl	$32, %edi
.LEHB29:
	call	_Znwm@PLT
.LEHE29:
	movq	16(%r12), %rsi
	movl	4(%rsp), %ecx
	leaq	16(%rsp), %rdi
	movq	%rax, %rbx
	movq	8(%rsp), %rdx
	movq	(%rsi), %rax
.LEHB30:
	call	*32(%rax)
.LEHE30:
	movq	16(%rsp), %rdi
	leaq	_ZNK4juce10Expression7Helpers8Constant8toDoubleEv(%rip), %rdx
	movq	(%rdi), %rax
	movq	48(%rax), %rax
	cmpq	%rdx, %rax
	je	.L1080
	leaq	_ZNK4juce10Expression4Term8toDoubleEv(%rip), %rdx
	cmpq	%rdx, %rax
	jne	.L1062
	leaq	16+_ZTVN4juce10Expression7Helpers8ConstantE(%rip), %rax
	movb	$0, 24(%rbx)
	movq	%rax, (%rbx)
	movq	.LC21(%rip), %rax
	movq	%rax, 16(%rbx)
	movq	%rbx, 0(%rbp)
	movl	$1, 8(%rbx)
.L1061:
	subl	$1, 8(%rdi)
	jne	.L1059
	movq	(%rdi), %rax
	call	*8(%rax)
.L1059:
	movq	24(%rsp), %rax
	subq	%fs:40, %rax
	jne	.L1079
	addq	$32, %rsp
	.cfi_remember_state
	.cfi_def_cfa_offset 32
	movq	%rbp, %rax
	popq	%rbx
	.cfi_def_cfa_offset 24
	popq	%rbp
	.cfi_def_cfa_offset 16
	popq	%r12
	.cfi_def_cfa_offset 8
	ret
	.p2align 4,,10
	.p2align 3
.L1062:
	.cfi_restore_state
.LEHB31:
	call	*%rax
.LEHE31:
	movq	16(%rsp), %rdi
	xorpd	.LC5(%rip), %xmm0
	leaq	16+_ZTVN4juce10Expression7Helpers8ConstantE(%rip), %rax
	movb	$0, 24(%rbx)
	movq	%rax, (%rbx)
	movq	%rbx, 0(%rbp)
	movl	$1, 8(%rbx)
	movsd	%xmm0, 16(%rbx)
	testq	%rdi, %rdi
	je	.L1059
	jmp	.L1061
	.p2align 4,,10
	.p2align 3
.L1080:
	movsd	16(%rdi), %xmm0
	leaq	16+_ZTVN4juce10Expression7Helpers8ConstantE(%rip), %rax
	movb	$0, 24(%rbx)
	xorpd	.LC5(%rip), %xmm0
	movq	%rax, (%rbx)
	movsd	%xmm0, 16(%rbx)
	movq	%rbx, 0(%rbp)
	movl	$1, 8(%rbx)
	jmp	.L1061
.L1065:
	movq	16(%rsp), %rdi
	testq	%rdi, %rdi
	je	.L1067
	subl	$1, 8(%rdi)
	jne	.L1067
	movq	(%rdi), %rax
	call	*8(%rax)
.L1067:
	movl	$32, %esi
	movq	%rbx, %rdi
	call	_ZdlPvm@PLT
	movq	24(%rsp), %rax
	subq	%fs:40, %rax
	je	.L1068
.L1079:
	call	__stack_chk_fail@PLT
.L1071:
	movq	%rax, %rbp
	jmp	.L1065
.L1070:
	movq	%rax, %rbp
	jmp	.L1067
.L1068:
	movq	%rbp, %rdi
.LEHB32:
	call	_Unwind_Resume@PLT
.LEHE32:
	.cfi_endproc
.LFE10757:
	.section	.gcc_except_table._ZN4juce10Expression7Helpers6Negate7resolveERKNS0_5ScopeEi,"aG",@progbits,_ZN4juce10Expression7Helpers6Negate7resolveERKNS0_5ScopeEi,comdat
.LLSDA10757:
	.byte	0xff
	.byte	0xff
	.byte	0x1
	.uleb128 .LLSDACSE10757-.LLSDACSB10757
.LLSDACSB10757:
	.uleb128 .LEHB29-.LFB10757
	.uleb128 .LEHE29-.LEHB29
	.uleb128 0
	.uleb128 0
	.uleb128 .LEHB30-.LFB10757
	.uleb128 .LEHE30-.LEHB30
	.uleb128 .L1070-.LFB10757
	.uleb128 0
	.uleb128 .LEHB31-.LFB10757
	.uleb128 .LEHE31-.LEHB31
	.uleb128 .L1071-.LFB10757
	.uleb128 0
	.uleb128 .LEHB32-.LFB10757
	.uleb128 .LEHE32-.LEHB32
	.uleb128 0
	.uleb128 0
.LLSDACSE10757:
	.section	.text._ZN4juce10Expression7Helpers6Negate7resolveERKNS0_5ScopeEi,"axG",@progbits,_ZN4juce10Expression7Helpers6Negate7resolveERKNS0_5ScopeEi,comdat
	.size	_ZN4juce10Expression7Helpers6Negate7resolveERKNS0_5ScopeEi, .-_ZN4juce10Expression7Helpers6Negate7resolveERKNS0_5ScopeEi
	.section	.text._ZN4juce10Expression7Helpers10BinaryTerm7resolveERKNS0_5ScopeEi,"axG",@progbits,_ZN4juce10Expression7Helpers10BinaryTerm7resolveERKNS0_5ScopeEi,comdat
	.align 2
	.p2align 4
	.weak	_ZN4juce10Expression7Helpers10BinaryTerm7resolveERKNS0_5ScopeEi
	.type	_ZN4juce10Expression7Helpers10BinaryTerm7resolveERKNS0_5ScopeEi, @function
_ZN4juce10Expression7Helpers10BinaryTerm7resolveERKNS0_5ScopeEi:
.LFB10660:
	.cfi_startproc
	.cfi_personality 0x9b,DW.ref.__gxx_personality_v0
	.cfi_lsda 0x1b,.LLSDA10660
	pushq	%r15
	.cfi_def_cfa_offset 16
	.cfi_offset 15, -16
	pushq	%r14
	.cfi_def_cfa_offset 24
	.cfi_offset 14, -24
	pushq	%r13
	.cfi_def_cfa_offset 32
	.cfi_offset 13, -32
	movq	%rdx, %r13
	pushq	%r12
	.cfi_def_cfa_offset 40
	.cfi_offset 12, -40
	movq	%rdi, %r12
	movl	$32, %edi
	pushq	%rbp
	.cfi_def_cfa_offset 48
	.cfi_offset 6, -48
	movq	%rsi, %rbp
	pushq	%rbx
	.cfi_def_cfa_offset 56
	.cfi_offset 3, -56
	subq	$56, %rsp
	.cfi_def_cfa_offset 112
	movq	%rdx, (%rsp)
	movq	%fs:40, %r15
	movq	%r15, 40(%rsp)
	movl	%ecx, %r15d
.LEHB33:
	call	_Znwm@PLT
.LEHE33:
	movq	24(%rbp), %rsi
	leaq	32(%rsp), %rdi
	movq	%r13, %rdx
	movq	%rax, %rbx
	movq	0(%rbp), %rax
	movq	128(%rax), %r14
	movq	(%rsi), %rax
	movl	%r15d, %ecx
.LEHB34:
	call	*32(%rax)
.LEHE34:
	movq	32(%rsp), %rdi
	leaq	_ZNK4juce10Expression7Helpers8Constant8toDoubleEv(%rip), %r13
	movq	(%rdi), %rax
	movq	48(%rax), %rax
	cmpq	%r13, %rax
	je	.L1114
	leaq	_ZNK4juce10Expression4Term8toDoubleEv(%rip), %rdx
	pxor	%xmm1, %xmm1
	cmpq	%rdx, %rax
	jne	.L1115
.L1083:
	movq	16(%rbp), %rsi
	movq	(%rsp), %rdx
	leaq	24(%rsp), %rdi
	movl	%r15d, %ecx
	movsd	%xmm1, 8(%rsp)
	movq	(%rsi), %rax
.LEHB35:
	call	*32(%rax)
.LEHE35:
	movq	24(%rsp), %rdi
	movsd	8(%rsp), %xmm1
	movq	(%rdi), %rax
	movq	48(%rax), %rax
	cmpq	%r13, %rax
	je	.L1116
	leaq	_ZNK4juce10Expression4Term8toDoubleEv(%rip), %rdx
	pxor	%xmm0, %xmm0
	cmpq	%rdx, %rax
	jne	.L1117
.L1085:
	movq	%rbp, %rdi
.LEHB36:
	call	*%r14
	movq	24(%rsp), %rdi
	leaq	16+_ZTVN4juce10Expression7Helpers8ConstantE(%rip), %rax
	movb	$0, 24(%rbx)
	movq	%rax, (%rbx)
	movq	%rbx, (%r12)
	movl	$1, 8(%rbx)
	movsd	%xmm0, 16(%rbx)
	testq	%rdi, %rdi
	je	.L1086
	subl	$1, 8(%rdi)
	je	.L1118
.L1086:
	movq	32(%rsp), %rdi
	testq	%rdi, %rdi
	je	.L1081
	subl	$1, 8(%rdi)
	je	.L1119
.L1081:
	movq	40(%rsp), %rax
	subq	%fs:40, %rax
	jne	.L1113
	addq	$56, %rsp
	.cfi_remember_state
	.cfi_def_cfa_offset 56
	movq	%r12, %rax
	popq	%rbx
	.cfi_def_cfa_offset 48
	popq	%rbp
	.cfi_def_cfa_offset 40
	popq	%r12
	.cfi_def_cfa_offset 32
	popq	%r13
	.cfi_def_cfa_offset 24
	popq	%r14
	.cfi_def_cfa_offset 16
	popq	%r15
	.cfi_def_cfa_offset 8
	ret
	.p2align 4,,10
	.p2align 3
.L1117:
	.cfi_restore_state
	movsd	%xmm1, (%rsp)
	call	*%rax
.LEHE36:
	movsd	(%rsp), %xmm1
	jmp	.L1085
	.p2align 4,,10
	.p2align 3
.L1115:
.LEHB37:
	call	*%rax
.LEHE37:
	movapd	%xmm0, %xmm1
	jmp	.L1083
	.p2align 4,,10
	.p2align 3
.L1119:
	movq	(%rdi), %rax
	call	*8(%rax)
	jmp	.L1081
	.p2align 4,,10
	.p2align 3
.L1118:
	movq	(%rdi), %rax
	call	*8(%rax)
	jmp	.L1086
	.p2align 4,,10
	.p2align 3
.L1116:
	movsd	16(%rdi), %xmm0
	jmp	.L1085
	.p2align 4,,10
	.p2align 3
.L1114:
	movsd	16(%rdi), %xmm1
	jmp	.L1083
.L1088:
	movq	24(%rsp), %rdi
	testq	%rdi, %rdi
	je	.L1090
	subl	$1, 8(%rdi)
	jne	.L1090
	movq	(%rdi), %rax
	call	*8(%rax)
.L1090:
	movq	32(%rsp), %rdi
	testq	%rdi, %rdi
	je	.L1092
	subl	$1, 8(%rdi)
	jne	.L1092
	movq	(%rdi), %rax
	call	*8(%rax)
.L1092:
	movl	$32, %esi
	movq	%rbx, %rdi
	call	_ZdlPvm@PLT
	movq	40(%rsp), %rax
	subq	%fs:40, %rax
	je	.L1093
.L1113:
	call	__stack_chk_fail@PLT
.L1099:
	movq	%rax, %rbp
	jmp	.L1088
.L1098:
	movq	%rax, %rbp
	jmp	.L1090
.L1097:
	movq	%rax, %rbp
	jmp	.L1092
.L1093:
	movq	%rbp, %rdi
.LEHB38:
	call	_Unwind_Resume@PLT
.LEHE38:
	.cfi_endproc
.LFE10660:
	.section	.gcc_except_table._ZN4juce10Expression7Helpers10BinaryTerm7resolveERKNS0_5ScopeEi,"aG",@progbits,_ZN4juce10Expression7Helpers10BinaryTerm7resolveERKNS0_5ScopeEi,comdat
.LLSDA10660:
	.byte	0xff
	.byte	0xff
	.byte	0x1
	.uleb128 .LLSDACSE10660-.LLSDACSB10660
.LLSDACSB10660:
	.uleb128 .LEHB33-.LFB10660
	.uleb128 .LEHE33-.LEHB33
	.uleb128 0
	.uleb128 0
	.uleb128 .LEHB34-.LFB10660
	.uleb128 .LEHE34-.LEHB34
	.uleb128 .L1097-.LFB10660
	.uleb128 0
	.uleb128 .LEHB35-.LFB10660
	.uleb128 .LEHE35-.LEHB35
	.uleb128 .L1098-.LFB10660
	.uleb128 0
	.uleb128 .LEHB36-.LFB10660
	.uleb128 .LEHE36-.LEHB36
	.uleb128 .L1099-.LFB10660
	.uleb128 0
	.uleb128 .LEHB37-.LFB10660
	.uleb128 .LEHE37-.LEHB37
	.uleb128 .L1098-.LFB10660
	.uleb128 0
	.uleb128 .LEHB38-.LFB10660
	.uleb128 .LEHE38-.LEHB38
	.uleb128 0
	.uleb128 0
.LLSDACSE10660:
	.section	.text._ZN4juce10Expression7Helpers10BinaryTerm7resolveERKNS0_5ScopeEi,"axG",@progbits,_ZN4juce10Expression7Helpers10BinaryTerm7resolveERKNS0_5ScopeEi,comdat
	.size	_ZN4juce10Expression7Helpers10BinaryTerm7resolveERKNS0_5ScopeEi, .-_ZN4juce10Expression7Helpers10BinaryTerm7resolveERKNS0_5ScopeEi
	.text
	.align 2
	.p2align 4
	.globl	_ZN4juce26GZIPCompressorOutputStream11getPositionEv
	.type	_ZN4juce26GZIPCompressorOutputStream11getPositionEv, @function
_ZN4juce26GZIPCompressorOutputStream11getPositionEv:
.LFB13474:
	.cfi_startproc
	leaq	_ZN4juce26GZIPCompressorOutputStream11getPositionEv(%rip), %rdx
.L1121:
	movq	16(%rdi), %rdi
	movq	(%rdi), %rax
	movq	32(%rax), %rax
	cmpq	%rdx, %rax
	je	.L1121
	leaq	_ZN4juce18MemoryOutputStream11getPositionEv(%rip), %rdx
	cmpq	%rdx, %rax
	je	.L1126
	leaq	_ZN4juce16FileOutputStream11getPositionEv(%rip), %rdx
	cmpq	%rdx, %rax
	je	.L1127
	jmp	*%rax
	.p2align 4,,10
	.p2align 3
.L1127:
	movq	40(%rdi), %rax
	ret
	.p2align 4,,10
	.p2align 3
.L1126:
	movq	48(%rdi), %rax
	ret
	.cfi_endproc
.LFE13474:
	.size	_ZN4juce26GZIPCompressorOutputStream11getPositionEv, .-_ZN4juce26GZIPCompressorOutputStream11getPositionEv
	.p2align 4
	.type	_ZN4juce13zlibNamespaceL12updatewindowEPNS0_10z_stream_sEj, @function
_ZN4juce13zlibNamespaceL12updatewindowEPNS0_10z_stream_sEj:
.LFB13394:
	.cfi_startproc
	pushq	%rbp
	.cfi_def_cfa_offset 16
	.cfi_offset 6, -16
	movq	%rdi, %rbp
	movl	%esi, %r8d
	pushq	%rbx
	.cfi_def_cfa_offset 24
	.cfi_offset 3, -24
	subq	$24, %rsp
	.cfi_def_cfa_offset 48
	movq	56(%rdi), %rbx
	movq	64(%rbx), %rdi
	testq	%rdi, %rdi
	je	.L1140
.L1129:
	movl	52(%rbx), %edx
	testl	%edx, %edx
	jne	.L1133
	movl	48(%rbx), %ecx
	movl	$1, %edx
	movq	$0, 56(%rbx)
	sall	%cl, %edx
	movl	%edx, 52(%rbx)
.L1133:
	subl	32(%rbp), %r8d
	movq	24(%rbp), %rsi
	cmpl	%edx, %r8d
	jnb	.L1141
	movl	60(%rbx), %eax
	movl	%r8d, 8(%rsp)
	subl	%eax, %edx
	cmpl	%r8d, %edx
	movl	%edx, %ecx
	cmova	%r8d, %ecx
	addq	%rax, %rdi
	movl	%r8d, %eax
	subq	%rax, %rsi
	movl	%ecx, %edx
	movl	%ecx, 12(%rsp)
	call	memcpy@PLT
	movl	8(%rsp), %r8d
	movl	12(%rsp), %ecx
	subl	%ecx, %r8d
	jne	.L1142
	movl	60(%rbx), %eax
	movl	52(%rbx), %edx
	addl	%ecx, %eax
	cmpl	%edx, %eax
	cmove	%r8d, %eax
	movl	%eax, 60(%rbx)
	movl	56(%rbx), %eax
	cmpl	%edx, %eax
	jb	.L1143
	.p2align 4
	.p2align 3
.L1135:
	xorl	%eax, %eax
.L1128:
	addq	$24, %rsp
	.cfi_remember_state
	.cfi_def_cfa_offset 24
	popq	%rbx
	.cfi_def_cfa_offset 16
	popq	%rbp
	.cfi_def_cfa_offset 8
	ret
	.p2align 4,,10
	.p2align 3
.L1141:
	.cfi_restore_state
	subq	%rdx, %rsi
	call	memcpy@PLT
	movl	52(%rbx), %eax
	movl	$0, 60(%rbx)
	movl	%eax, 56(%rbx)
	jmp	.L1135
	.p2align 4,,10
	.p2align 3
.L1140:
	movl	48(%rbx), %ecx
	movq	64(%rbp), %rax
	movl	$1, %esi
	leaq	_ZN4juce13zlibNamespace7zcallocEPvjj(%rip), %rdx
	movl	%r8d, 8(%rsp)
	sall	%cl, %esi
	cmpq	%rdx, %rax
	jne	.L1130
	movl	%esi, %edi
	call	malloc@PLT
	movl	8(%rsp), %r8d
	movq	%rax, %rdi
.L1131:
	movq	%rdi, 64(%rbx)
	testq	%rdi, %rdi
	jne	.L1129
	movl	$1, %eax
	jmp	.L1128
	.p2align 4,,10
	.p2align 3
.L1143:
	addl	%eax, %ecx
	movl	%ecx, 56(%rbx)
	jmp	.L1135
	.p2align 4,,10
	.p2align 3
.L1142:
	movq	24(%rbp), %rsi
	movl	%r8d, %edx
	movq	64(%rbx), %rdi
	movl	%r8d, 8(%rsp)
	subq	%rdx, %rsi
	call	memcpy@PLT
	movl	8(%rsp), %r8d
	movl	52(%rbx), %eax
	movl	%r8d, 60(%rbx)
	movl	%eax, 56(%rbx)
	jmp	.L1135
	.p2align 4,,10
	.p2align 3
.L1130:
	movq	80(%rbp), %rdi
	movl	$1, %edx
	call	*%rax
	movl	8(%rsp), %r8d
	movq	%rax, %rdi
	jmp	.L1131
	.cfi_endproc
.LFE13394:
	.size	_ZN4juce13zlibNamespaceL12updatewindowEPNS0_10z_stream_sEj, .-_ZN4juce13zlibNamespaceL12updatewindowEPNS0_10z_stream_sEj
	.p2align 4
	.type	_ZNSt17_Function_handlerIFbiiEZNK4juce3URL17createInputStreamEbPFbPviiES3_NS1_6StringEiPNS1_15StringPairArrayEPiiS6_EUliiE_E10_M_managerERSt9_Any_dataRKSC_St18_Manager_operation, @function
_ZNSt17_Function_handlerIFbiiEZNK4juce3URL17createInputStreamEbPFbPviiES3_NS1_6StringEiPNS1_15StringPairArrayEPiiS6_EUliiE_E10_M_managerERSt9_Any_dataRKSC_St18_Manager_operation:
.LFB19262:
	.cfi_startproc
	testl	%edx, %edx
	je	.L1145
	cmpl	$1, %edx
	jne	.L1150
	movq	%rsi, (%rdi)
.L1148:
	xorl	%eax, %eax
	ret
	.p2align 4,,10
	.p2align 3
.L1150:
	cmpl	$2, %edx
	jne	.L1148
	movdqu	(%rsi), %xmm0
	movups	%xmm0, (%rdi)
	jmp	.L1148
	.p2align 4,,10
	.p2align 3
.L1145:
	leaq	_ZTIZNK4juce3URL17createInputStreamEbPFbPviiES1_NS_6StringEiPNS_15StringPairArrayEPiiS4_EUliiE_(%rip), %rax
	movq	%rax, (%rdi)
	xorl	%eax, %eax
	ret
	.cfi_endproc
.LFE19262:
	.size	_ZNSt17_Function_handlerIFbiiEZNK4juce3URL17createInputStreamEbPFbPviiES3_NS1_6StringEiPNS1_15StringPairArrayEPiiS6_EUliiE_E10_M_managerERSt9_Any_dataRKSC_St18_Manager_operation, .-_ZNSt17_Function_handlerIFbiiEZNK4juce3URL17createInputStreamEbPFbPviiES3_NS1_6StringEiPNS1_15StringPairArrayEPiiS6_EUliiE_E10_M_managerERSt9_Any_dataRKSC_St18_Manager_operation
	.align 2
	.p2align 4
	.globl	_ZN4juce17MemoryInputStream13skipNextBytesEx
	.type	_ZN4juce17MemoryInputStream13skipNextBytesEx, @function
_ZN4juce17MemoryInputStream13skipNextBytesEx:
.LFB11587:
	.cfi_startproc
	testq	%rsi, %rsi
	jle	.L1159
	movq	(%rdi), %rax
	leaq	_ZN4juce17MemoryInputStream11getPositionEv(%rip), %rcx
	movq	184(%rax), %rdx
	movq	176(%rax), %rax
	cmpq	%rcx, %rax
	jne	.L1167
	movq	24(%rdi), %rax
	addq	%rax, %rsi
	leaq	_ZN4juce17MemoryInputStream11setPositionEx(%rip), %rax
	cmpq	%rax, %rdx
	jne	.L1162
	xorl	%eax, %eax
	testq	%rsi, %rsi
	js	.L1164
	movq	16(%rdi), %rax
	cmpq	%rax, %rsi
	cmovle	%rsi, %rax
.L1164:
	movq	%rax, 24(%rdi)
	ret
	.p2align 4,,10
	.p2align 3
.L1159:
	ret
	.p2align 4,,10
	.p2align 3
.L1167:
	subq	$40, %rsp
	.cfi_def_cfa_offset 48
	movq	%rsi, 24(%rsp)
	movq	%rdx, 16(%rsp)
